; generated by ARM C/C++ Compiler, 4.1 [Build 481]
; commandline ArmCC [--debug -c --asm --interleave -o.\rvmdk\dialog.o --depend=.\rvmdk\dialog.d --cpu=Cortex-M3 --apcs=interwork -O1 -Otime -I. -I..\BSP -I..\..\..\..\..\uCOS-II\Ports\arm-cortex-m3\Generic\RealView -I..\..\..\..\..\uCOS-II\Source -I..\..\..\..\..\CPU\ST\STM32\inc -I..\..\..\..\..\uC-CPU -I..\..\..\..\..\uC-CPU\Arm-Cortex-M3\RealView -I..\..\..\..\..\uC-LIB -I..\..\..\..\..\uC-Probe\Target\Plugins\uCOS-II -I..\..\..\..\..\uC-Probe\Target\Communication\Generic\Source -I..\..\..\..\..\uC-Probe\Target\Communication\Generic\RS-232\Ports\ST\STM32 -I..\..\..\..\..\uC-Probe\Target\Communication\Generic\RS-232\Source -I..\..\..\..\..\User\inc -I..\..\..\..\..\uCGUI\Config -I..\..\..\..\..\uCGUI\GUIDemo -I..\..\..\..\..\uCGUI\LCDDriver -I..\..\..\..\..\uCGUI\GUI\AntiAlias -I..\..\..\..\..\uCGUI\GUI\ConvertColor -I..\..\..\..\..\uCGUI\GUI\ConvertMono -I..\..\..\..\..\uCGUI\GUI\Core -I..\..\..\..\..\uCGUI\GUI\Font -I..\..\..\..\..\uCGUI\GUI\LCDDriver -I..\..\..\..\..\uCGUI\GUI\MemDev -I..\..\..\..\..\uCGUI\GUI\MultiLayer -I..\..\..\..\..\uCGUI\GUI\Widget -I..\..\..\..\..\uCGUI\GUI\WM -Id:\Keil-stm32\ARM\INC -Id:\Keil-stm32\ARM\INC\ST\STM32F10x -D__MICROLIB --omf_browse=.\rvmdk\dialog.crf ..\..\..\..\..\uCGUI\GUI\Widget\DIALOG.c]
                          THUMB

                          AREA ||.text||, CODE, READONLY, ALIGN=2

                  DIALOG_GetBkColor PROC
;;;62     */
;;;63     LCD_COLOR DIALOG_GetBkColor(void) {
000000  4849              LDR      r0,|L1.296|
;;;64       return _BkColor;
000002  6800              LDR      r0,[r0,#0]  ; _BkColor
;;;65     }
000004  4770              BX       lr
;;;66     
                          ENDP

                  DIALOG_SetBkColor PROC
;;;70     */
;;;71     LCD_COLOR DIALOG_SetBkColor(LCD_COLOR BkColor) {
000006  4a48              LDR      r2,|L1.296|
;;;72       LCD_COLOR r;
;;;73       r = _BkColor;
000008  6811              LDR      r1,[r2,#0]  ; _BkColor
;;;74       _BkColor = BkColor;
00000a  6010              STR      r0,[r2,#0]  ; _BkColor
;;;75       return r;
00000c  4608              MOV      r0,r1
;;;76     }
00000e  4770              BX       lr
;;;77     /*********************************************************************
                          ENDP

                  GUI_SetDialogStatusPtr PROC
;;;80     */
;;;81     void GUI_SetDialogStatusPtr(WM_HWIN hDialog, WM_DIALOG_STATUS* pDialogStatus) {
000010  b500              PUSH     {lr}
000012  b083              SUB      sp,sp,#0xc
;;;82       WM_MESSAGE Msg = {0};
000014  2200              MOVS     r2,#0
000016  9201              STR      r2,[sp,#4]
;;;83       Msg.MsgId = WM_HANDLE_DIALOG_STATUS;
000018  222a              MOVS     r2,#0x2a
00001a  9200              STR      r2,[sp,#0]
;;;84       Msg.Data.p = pDialogStatus;
00001c  9102              STR      r1,[sp,#8]
;;;85       WM_SendMessage(hDialog, &Msg);
00001e  4669              MOV      r1,sp
000020  f7fffffe          BL       WM_SendMessage
;;;86     }
000024  b003              ADD      sp,sp,#0xc
000026  bd00              POP      {pc}
;;;87     
                          ENDP

                  GUI_GetDialogStatusPtr PROC
;;;91     */
;;;92     WM_DIALOG_STATUS*  GUI_GetDialogStatusPtr(WM_HWIN hDialog) {
000028  b500              PUSH     {lr}
00002a  b083              SUB      sp,sp,#0xc
;;;93       WM_MESSAGE Msg = {0};
00002c  2100              MOVS     r1,#0
00002e  9101              STR      r1,[sp,#4]
000030  9102              STR      r1,[sp,#8]
;;;94       Msg.MsgId = WM_HANDLE_DIALOG_STATUS;
000032  212a              MOVS     r1,#0x2a
000034  9100              STR      r1,[sp,#0]
;;;95       WM_SendMessage(hDialog, &Msg);
000036  4669              MOV      r1,sp
000038  f7fffffe          BL       WM_SendMessage
;;;96       return (WM_DIALOG_STATUS*)Msg.Data.p;
00003c  9802              LDR      r0,[sp,#8]
;;;97     }
00003e  b003              ADD      sp,sp,#0xc
000040  bd00              POP      {pc}
;;;98     /*********************************************************************
                          ENDP

                  GUI_CreateDialogBox PROC
;;;101    */
;;;102    WM_HWIN GUI_CreateDialogBox(const GUI_WIDGET_CREATE_INFO* paWidget, int NumWidgets, WM_CALLBACK* cb, WM_HWIN hParent,
000042  b5f8              PUSH     {r3-r7,lr}
;;;103                                int x0, int y0)
;;;104    {
000044  4604              MOV      r4,r0
000046  4694              MOV      r12,r2
000048  460d              MOV      r5,r1
00004a  9a06              LDR      r2,[sp,#0x18]
00004c  9807              LDR      r0,[sp,#0x1c]
00004e  4619              MOV      r1,r3
;;;105      WM_HWIN hDialog, hDialogClient;
;;;106      hDialog = paWidget->pfCreateIndirect(paWidget, hParent, x0, y0, cb);     /* Create parent window */
000050  f8cdc000          STR      r12,[sp,#0]
000054  4603              MOV      r3,r0
000056  f8d4c000          LDR      r12,[r4,#0]
00005a  4620              MOV      r0,r4
00005c  47e0              BLX      r12
00005e  4606              MOV      r6,r0
;;;107      if (!hDialog) {
000060  b33e              CBZ      r6,|L1.178|
;;;108        return 0;
;;;109      }
;;;110      hDialogClient = WM_GetClientWindow(hDialog);
000062  4630              MOV      r0,r6
000064  f7fffffe          BL       WM_GetClientWindow
000068  4607              MOV      r7,r0
;;;111      WIDGET_OrState(hDialog, paWidget->Flags);
00006a  8a61              LDRH     r1,[r4,#0x12]
00006c  4630              MOV      r0,r6
00006e  f7fffffe          BL       WIDGET_OrState
;;;112      WM_ShowWindow(hDialog);
000072  4630              MOV      r0,r6
000074  f7fffffe          BL       WM_ShowWindow
;;;113      WM_ShowWindow(hDialogClient);
000078  4638              MOV      r0,r7
00007a  f7fffffe          BL       WM_ShowWindow
;;;114      while (--NumWidgets > 0) {
00007e  1e6d              SUBS     r5,r5,#1
000080  2d00              CMP      r5,#0
000082  dd0d              BLE      |L1.160|
                  |L1.132|
;;;115        WM_HWIN hChild;
;;;116        paWidget++;
;;;117        hChild = paWidget->pfCreateIndirect(paWidget, hDialogClient, 0, 0, 0);     /* Create child window */
000084  2300              MOVS     r3,#0
000086  9300              STR      r3,[sp,#0]
000088  f854cf18          LDR      r12,[r4,#0x18]!
00008c  461a              MOV      r2,r3
00008e  4639              MOV      r1,r7
000090  4620              MOV      r0,r4
000092  47e0              BLX      r12
;;;118        if (!hChild) {
000094  b178              CBZ      r0,|L1.182|
;;;119          WM_DeleteWindow(hDialog);
;;;120          return 0;
;;;121        }
;;;122        WM_ShowWindow(hChild);
000096  f7fffffe          BL       WM_ShowWindow
00009a  1e6d              SUBS     r5,r5,#1              ;114
00009c  2d00              CMP      r5,#0                 ;114
00009e  dcf1              BGT      |L1.132|
                  |L1.160|
;;;123      }
;;;124      WM_SetFocusOnNextChild(hDialog);     /* Set the focus to the first child */
0000a0  4630              MOV      r0,r6
0000a2  f7fffffe          BL       WM_SetFocusOnNextChild
;;;125      WM_SendMessageNoPara(hDialogClient, WM_INIT_DIALOG);
0000a6  211d              MOVS     r1,#0x1d
0000a8  4638              MOV      r0,r7
0000aa  f7fffffe          BL       WM_SendMessageNoPara
;;;126      return hDialog;
0000ae  4630              MOV      r0,r6
;;;127    }
0000b0  bdf8              POP      {r3-r7,pc}
                  |L1.178|
0000b2  2000              MOVS     r0,#0                 ;108
0000b4  bdf8              POP      {r3-r7,pc}
                  |L1.182|
0000b6  4630              MOV      r0,r6                 ;119
0000b8  f7fffffe          BL       WM_DeleteWindow
0000bc  2000              MOVS     r0,#0                 ;120
0000be  bdf8              POP      {r3-r7,pc}
;;;128    
                          ENDP

                  GUI_EndDialog PROC
;;;132    */
;;;133    void GUI_EndDialog(WM_HWIN hDialog, int r) {
0000c0  b570              PUSH     {r4-r6,lr}
0000c2  4605              MOV      r5,r0
0000c4  460c              MOV      r4,r1
;;;134      WM_DIALOG_STATUS* pStatus;
;;;135      pStatus = GUI_GetDialogStatusPtr(hDialog);
0000c6  4628              MOV      r0,r5
0000c8  f7fffffe          BL       GUI_GetDialogStatusPtr
;;;136      if (pStatus) {
0000cc  b110              CBZ      r0,|L1.212|
;;;137        pStatus->ReturnValue = r;
0000ce  6044              STR      r4,[r0,#4]
;;;138        pStatus->Done = 1;
0000d0  2101              MOVS     r1,#1
0000d2  6001              STR      r1,[r0,#0]
                  |L1.212|
;;;139      }
;;;140      WM_DeleteWindow(hDialog);
0000d4  4628              MOV      r0,r5
0000d6  e8bd4070          POP      {r4-r6,lr}
0000da  f7ffbffe          B.W      WM_DeleteWindow
;;;141    }
;;;142    
                          ENDP

                  GUI_ExecCreatedDialog PROC
;;;147    */
;;;148    int     GUI_ExecCreatedDialog (WM_HWIN hDialog) {
0000de  b500              PUSH     {lr}
0000e0  b083              SUB      sp,sp,#0xc
;;;149      WM_DIALOG_STATUS DialogStatus = {0};
0000e2  2100              MOVS     r1,#0
0000e4  9100              STR      r1,[sp,#0]
0000e6  9101              STR      r1,[sp,#4]
;;;150      /* Let window know how to send feedback (close info & return value) */
;;;151      GUI_SetDialogStatusPtr(hDialog, &DialogStatus);
0000e8  4669              MOV      r1,sp
0000ea  f7fffffe          BL       GUI_SetDialogStatusPtr
;;;152      while (!DialogStatus.Done) {
0000ee  9800              LDR      r0,[sp,#0]
0000f0  b938              CBNZ     r0,|L1.258|
                  |L1.242|
;;;153        if (!GUI_Exec()) {
0000f2  f7fffffe          BL       GUI_Exec
0000f6  b908              CBNZ     r0,|L1.252|
;;;154          GUI_WaitEvent();      /* Wait for event (keyboard, mouse or whatever) */
0000f8  f7fffffe          BL       GUI_WaitEvent
                  |L1.252|
0000fc  9800              LDR      r0,[sp,#0]            ;152
0000fe  2800              CMP      r0,#0                 ;152
000100  d0f7              BEQ      |L1.242|
                  |L1.258|
;;;155        }
;;;156      }
;;;157      return DialogStatus.ReturnValue;
000102  9801              LDR      r0,[sp,#4]
;;;158    }
000104  b003              ADD      sp,sp,#0xc
000106  bd00              POP      {pc}
;;;159    
                          ENDP

                  GUI_ExecDialogBox PROC
;;;169    */
;;;170    int GUI_ExecDialogBox(const GUI_WIDGET_CREATE_INFO* paWidget,
000108  b510              PUSH     {r4,lr}
;;;171                          int NumWidgets, WM_CALLBACK* cb, WM_HWIN hParent, int x0, int y0)
;;;172    {
00010a  b082              SUB      sp,sp,#8
00010c  4694              MOV      r12,r2
00010e  461c              MOV      r4,r3
000110  9b05              LDR      r3,[sp,#0x14]
000112  9a04              LDR      r2,[sp,#0x10]
;;;173      WM_HWIN hDialog;
;;;174      hDialog = GUI_CreateDialogBox(paWidget, NumWidgets, cb, hParent, x0, y0);
000114  9301              STR      r3,[sp,#4]
000116  9200              STR      r2,[sp,#0]
000118  4623              MOV      r3,r4
00011a  4662              MOV      r2,r12
00011c  f7fffffe          BL       GUI_CreateDialogBox
;;;175      return GUI_ExecCreatedDialog(hDialog);
000120  b002              ADD      sp,sp,#8
000122  e8bd4010          POP      {r4,lr}
000126  e7fe              B        GUI_ExecCreatedDialog
;;;176    }
;;;177    
                          ENDP

                  |L1.296|
                          DCD      ||.data||

                          AREA ||.data||, DATA, ALIGN=2

                  _BkColor
                          DCD      0x00c0c0c0
