; generated by ARM C/C++ Compiler, 4.1 [Build 481]
; commandline ArmCC [--debug -c --asm --interleave -o.\rvmdk\framewin_setcolors.o --depend=.\rvmdk\framewin_setcolors.d --cpu=Cortex-M3 --apcs=interwork -O1 -Otime -I. -I..\BSP -I..\..\..\..\..\uCOS-II\Ports\arm-cortex-m3\Generic\RealView -I..\..\..\..\..\uCOS-II\Source -I..\..\..\..\..\CPU\ST\STM32\inc -I..\..\..\..\..\uC-CPU -I..\..\..\..\..\uC-CPU\Arm-Cortex-M3\RealView -I..\..\..\..\..\uC-LIB -I..\..\..\..\..\uC-Probe\Target\Plugins\uCOS-II -I..\..\..\..\..\uC-Probe\Target\Communication\Generic\Source -I..\..\..\..\..\uC-Probe\Target\Communication\Generic\RS-232\Ports\ST\STM32 -I..\..\..\..\..\uC-Probe\Target\Communication\Generic\RS-232\Source -I..\..\..\..\..\User\inc -I..\..\..\..\..\uCGUI\Config -I..\..\..\..\..\uCGUI\GUIDemo -I..\..\..\..\..\uCGUI\LCDDriver -I..\..\..\..\..\uCGUI\GUI\AntiAlias -I..\..\..\..\..\uCGUI\GUI\ConvertColor -I..\..\..\..\..\uCGUI\GUI\ConvertMono -I..\..\..\..\..\uCGUI\GUI\Core -I..\..\..\..\..\uCGUI\GUI\Font -I..\..\..\..\..\uCGUI\GUI\LCDDriver -I..\..\..\..\..\uCGUI\GUI\MemDev -I..\..\..\..\..\uCGUI\GUI\MultiLayer -I..\..\..\..\..\uCGUI\GUI\Widget -I..\..\..\..\..\uCGUI\GUI\WM -Id:\Keil-stm32\ARM\INC -Id:\Keil-stm32\ARM\INC\ST\STM32F10x -D__MICROLIB --omf_browse=.\rvmdk\framewin_setcolors.crf ..\..\..\..\..\uCGUI\GUI\Widget\FRAMEWIN_SetColors.c]
                          THUMB

                          AREA ||.text||, CODE, READONLY, ALIGN=1

                  FRAMEWIN_SetBarColor PROC
;;;33     */
;;;34     void FRAMEWIN_SetBarColor(FRAMEWIN_Handle hObj, unsigned Index, GUI_COLOR Color) {
000000  b570              PUSH     {r4-r6,lr}
000002  4606              MOV      r6,r0
000004  460c              MOV      r4,r1
000006  4615              MOV      r5,r2
;;;35       if (hObj) {
000008  2e00              CMP      r6,#0
00000a  d010              BEQ      |L1.46|
;;;36         FRAMEWIN_Obj* pObj;
;;;37         GUI_LOCK();
00000c  f7fffffe          BL       GUI_Lock
;;;38         pObj = FRAMEWIN_H2P(hObj);
000010  4630              MOV      r0,r6
000012  f7fffffe          BL       GUI_ALLOC_h2p
;;;39         if (Index < GUI_COUNTOF(pObj->Props.aBarColor)) {
000016  2c02              CMP      r4,#2
000018  d205              BCS      |L1.38|
;;;40           pObj->Props.aBarColor[Index] = Color;
00001a  eb000084          ADD      r0,r0,r4,LSL #2
00001e  62c5              STR      r5,[r0,#0x2c]
;;;41           FRAMEWIN_Invalidate(hObj);
000020  4630              MOV      r0,r6
000022  f7fffffe          BL       WM_InvalidateWindow
                  |L1.38|
;;;42         }
;;;43         GUI_UNLOCK();
000026  e8bd4070          POP      {r4-r6,lr}
00002a  f7ffbffe          B.W      GUI_Unlock
                  |L1.46|
;;;44       }
;;;45     }
00002e  bd70              POP      {r4-r6,pc}
;;;46     
                          ENDP

                  FRAMEWIN_SetTextColor PROC
;;;50     */
;;;51     void FRAMEWIN_SetTextColor(FRAMEWIN_Handle hObj, GUI_COLOR Color) {
000030  b570              PUSH     {r4-r6,lr}
000032  4605              MOV      r5,r0
000034  460c              MOV      r4,r1
;;;52       if (hObj) {
000036  2d00              CMP      r5,#0
000038  d012              BEQ      |L1.96|
;;;53         FRAMEWIN_Obj* pObj;
;;;54         int i;
;;;55         GUI_LOCK();
00003a  f7fffffe          BL       GUI_Lock
;;;56         pObj = FRAMEWIN_H2P(hObj);
00003e  4628              MOV      r0,r5
000040  f7fffffe          BL       GUI_ALLOC_h2p
;;;57         for (i = 0; i < GUI_COUNTOF(pObj->Props.aTextColor); i++) {
000044  2200              MOVS     r2,#0
                  |L1.70|
;;;58           pObj->Props.aTextColor[i] = Color;
000046  eb000182          ADD      r1,r0,r2,LSL #2
00004a  634c              STR      r4,[r1,#0x34]
00004c  1c52              ADDS     r2,r2,#1              ;57
00004e  2a02              CMP      r2,#2                 ;57
000050  d3f9              BCC      |L1.70|
;;;59         }
;;;60         FRAMEWIN_Invalidate(hObj);
000052  4628              MOV      r0,r5
000054  f7fffffe          BL       WM_InvalidateWindow
;;;61         GUI_UNLOCK();
000058  e8bd4070          POP      {r4-r6,lr}
00005c  f7ffbffe          B.W      GUI_Unlock
                  |L1.96|
;;;62       }
;;;63     }
000060  bd70              POP      {r4-r6,pc}
;;;64     
                          ENDP

                  FRAMEWIN_SetTextColorEx PROC
;;;68     */
;;;69     void FRAMEWIN_SetTextColorEx(FRAMEWIN_Handle hObj, unsigned Index, GUI_COLOR Color) {
000062  b570              PUSH     {r4-r6,lr}
000064  4606              MOV      r6,r0
000066  460c              MOV      r4,r1
000068  4615              MOV      r5,r2
;;;70       if (hObj) {
00006a  2e00              CMP      r6,#0
00006c  d010              BEQ      |L1.144|
;;;71         FRAMEWIN_Obj* pObj;
;;;72         GUI_LOCK();
00006e  f7fffffe          BL       GUI_Lock
;;;73         pObj = FRAMEWIN_H2P(hObj);
000072  4630              MOV      r0,r6
000074  f7fffffe          BL       GUI_ALLOC_h2p
;;;74         if (Index < GUI_COUNTOF(pObj->Props.aTextColor)) {
000078  2c02              CMP      r4,#2
00007a  d205              BCS      |L1.136|
;;;75           pObj->Props.aTextColor[Index] = Color;
00007c  eb000084          ADD      r0,r0,r4,LSL #2
000080  6345              STR      r5,[r0,#0x34]
;;;76           FRAMEWIN_Invalidate(hObj);
000082  4630              MOV      r0,r6
000084  f7fffffe          BL       WM_InvalidateWindow
                  |L1.136|
;;;77         }
;;;78         GUI_UNLOCK();
000088  e8bd4070          POP      {r4-r6,lr}
00008c  f7ffbffe          B.W      GUI_Unlock
                  |L1.144|
;;;79       }
;;;80     }
000090  bd70              POP      {r4-r6,pc}
;;;81     
                          ENDP

                  FRAMEWIN_SetClientColor PROC
;;;85     */
;;;86     void FRAMEWIN_SetClientColor(FRAMEWIN_Handle hObj, GUI_COLOR Color) {
000092  b570              PUSH     {r4-r6,lr}
000094  4605              MOV      r5,r0
000096  460c              MOV      r4,r1
;;;87       if (hObj) {
000098  2d00              CMP      r5,#0
00009a  d010              BEQ      |L1.190|
;;;88         FRAMEWIN_Obj* pObj;
;;;89         GUI_LOCK();
00009c  f7fffffe          BL       GUI_Lock
;;;90         pObj = FRAMEWIN_H2P(hObj);
0000a0  4628              MOV      r0,r5
0000a2  f7fffffe          BL       GUI_ALLOC_h2p
;;;91         if (pObj->Props.ClientColor != Color) {
0000a6  6bc1              LDR      r1,[r0,#0x3c]
0000a8  42a1              CMP      r1,r4
0000aa  d004              BEQ      |L1.182|
;;;92           pObj->Props.ClientColor = Color;
0000ac  63c4              STR      r4,[r0,#0x3c]
;;;93           FRAMEWIN_Invalidate(pObj->hClient);
0000ae  f9b0004c          LDRSH    r0,[r0,#0x4c]
0000b2  f7fffffe          BL       WM_InvalidateWindow
                  |L1.182|
;;;94         }
;;;95         GUI_UNLOCK();
0000b6  e8bd4070          POP      {r4-r6,lr}
0000ba  f7ffbffe          B.W      GUI_Unlock
                  |L1.190|
;;;96       }
;;;97     }
0000be  bd70              POP      {r4-r6,pc}
;;;98     
                          ENDP

