; generated by ARM C/C++ Compiler, 4.1 [Build 481]
; commandline ArmCC [--debug -c --asm --interleave -o.\rvmdk\framewin_setresizeable.o --depend=.\rvmdk\framewin_setresizeable.d --cpu=Cortex-M3 --apcs=interwork -O1 -Otime -I. -I..\BSP -I..\..\..\..\..\uCOS-II\Ports\arm-cortex-m3\Generic\RealView -I..\..\..\..\..\uCOS-II\Source -I..\..\..\..\..\CPU\ST\STM32\inc -I..\..\..\..\..\uC-CPU -I..\..\..\..\..\uC-CPU\Arm-Cortex-M3\RealView -I..\..\..\..\..\uC-LIB -I..\..\..\..\..\uC-Probe\Target\Plugins\uCOS-II -I..\..\..\..\..\uC-Probe\Target\Communication\Generic\Source -I..\..\..\..\..\uC-Probe\Target\Communication\Generic\RS-232\Ports\ST\STM32 -I..\..\..\..\..\uC-Probe\Target\Communication\Generic\RS-232\Source -I..\..\..\..\..\User\inc -I..\..\..\..\..\uCGUI\Config -I..\..\..\..\..\uCGUI\GUIDemo -I..\..\..\..\..\uCGUI\LCDDriver -I..\..\..\..\..\uCGUI\GUI\AntiAlias -I..\..\..\..\..\uCGUI\GUI\ConvertColor -I..\..\..\..\..\uCGUI\GUI\ConvertMono -I..\..\..\..\..\uCGUI\GUI\Core -I..\..\..\..\..\uCGUI\GUI\Font -I..\..\..\..\..\uCGUI\GUI\LCDDriver -I..\..\..\..\..\uCGUI\GUI\MemDev -I..\..\..\..\..\uCGUI\GUI\MultiLayer -I..\..\..\..\..\uCGUI\GUI\Widget -I..\..\..\..\..\uCGUI\GUI\WM -Id:\Keil-stm32\ARM\INC -Id:\Keil-stm32\ARM\INC\ST\STM32F10x -D__MICROLIB --omf_browse=.\rvmdk\framewin_setresizeable.crf ..\..\..\..\..\uCGUI\GUI\Widget\FRAMEWIN_SetResizeable.c]
                          THUMB

                          AREA ||.text||, CODE, READONLY, ALIGN=2

                  _SetCapture PROC
;;;282    */
;;;283    static void _SetCapture(FRAMEWIN_Handle hWin, int x, int y, int Mode) {
000000  b570              PUSH     {r4-r6,lr}
000002  4606              MOV      r6,r0
000004  461c              MOV      r4,r3
;;;284      if ((_CaptureFlags & FRAMEWIN_REPOS_X) == 0) {
000006  4da7              LDR      r5,|L1.676|
000008  68ab              LDR      r3,[r5,#8]  ; _CaptureFlags
00000a  f0130f04          TST      r3,#4
00000e  d100              BNE      |L1.18|
;;;285        _CaptureX = x;
000010  6029              STR      r1,[r5,#0]  ; _CaptureX
                  |L1.18|
;;;286      }
;;;287      if ((_CaptureFlags & FRAMEWIN_REPOS_Y) == 0) {
000012  f0130f08          TST      r3,#8
000016  d100              BNE      |L1.26|
;;;288        _CaptureY = y;
000018  606a              STR      r2,[r5,#4]  ; _CaptureY
                  |L1.26|
;;;289      }
;;;290      if (Mode) {
00001a  2c00              CMP      r4,#0
00001c  d00e              BEQ      |L1.60|
;;;291        if (WM_HasCaptured(hWin) == 0) {
00001e  4630              MOV      r0,r6
000020  f7fffffe          BL       WM_HasCaptured
000024  b918              CBNZ     r0,|L1.46|
;;;292          WM_SetCapture(hWin, 0);
000026  2100              MOVS     r1,#0
000028  4630              MOV      r0,r6
00002a  f7fffffe          BL       WM_SetCapture
                  |L1.46|
;;;293        }
;;;294      #if GUI_SUPPORT_CURSOR
;;;295        _SetResizeCursor(Mode);
;;;296      #endif
;;;297        if (Mode & FRAMEWIN_MOUSEOVER) {
00002e  f0140f10          TST      r4,#0x10
000032  d000              BEQ      |L1.54|
;;;298          Mode = 0;
000034  2400              MOVS     r4,#0
                  |L1.54|
;;;299        }
;;;300        _CaptureFlags = (Mode | FRAMEWIN_MOUSEOVER);
000036  f0440010          ORR      r0,r4,#0x10
00003a  60a8              STR      r0,[r5,#8]  ; _CaptureFlags
                  |L1.60|
;;;301      }
;;;302    }
00003c  bd70              POP      {r4-r6,pc}
;;;303    
                          ENDP

                  _ChangeWindowPosSize PROC
;;;307    */
;;;308    static void _ChangeWindowPosSize(FRAMEWIN_Handle hWin, int* px, int* py) {
00003e  e92d43f0          PUSH     {r4-r9,lr}
000042  b083              SUB      sp,sp,#0xc
000044  4681              MOV      r9,r0
000046  460e              MOV      r6,r1
000048  4617              MOV      r7,r2
;;;309      int dx = 0, dy = 0;
00004a  2400              MOVS     r4,#0
00004c  2500              MOVS     r5,#0
;;;310      GUI_RECT Rect;
;;;311      WM_GetClientRectEx(hWin, &Rect);
00004e  4669              MOV      r1,sp
000050  4648              MOV      r0,r9
000052  f7fffffe          BL       WM_GetClientRectEx
;;;312      /* Calculate new size of window */
;;;313      if (_CaptureFlags & FRAMEWIN_RESIZE_X) {
000056  f8df824c          LDR      r8,|L1.676|
00005a  f8d81008          LDR      r1,[r8,#8]  ; _CaptureFlags
00005e  f0110f01          TST      r1,#1
000062  d00b              BEQ      |L1.124|
;;;314        dx = (_CaptureFlags & FRAMEWIN_REPOS_X) ? (_CaptureX - *px) : (*px - _CaptureX);
000064  f0110f04          TST      r1,#4
000068  d004              BEQ      |L1.116|
00006a  6830              LDR      r0,[r6,#0]
00006c  f8d82000          LDR      r2,[r8,#0]  ; _CaptureX
000070  1a14              SUBS     r4,r2,r0
000072  e003              B        |L1.124|
                  |L1.116|
000074  6830              LDR      r0,[r6,#0]
000076  f8d82000          LDR      r2,[r8,#0]  ; _CaptureX
00007a  1a84              SUBS     r4,r0,r2
                  |L1.124|
;;;315      }
;;;316      if (_CaptureFlags & FRAMEWIN_RESIZE_Y) {
00007c  f0110f02          TST      r1,#2
000080  d00b              BEQ      |L1.154|
;;;317        dy = (_CaptureFlags & FRAMEWIN_REPOS_Y) ? (_CaptureY - *py) : (*py - _CaptureY);
000082  f0110f08          TST      r1,#8
000086  d004              BEQ      |L1.146|
000088  6838              LDR      r0,[r7,#0]
00008a  f8d82004          LDR      r2,[r8,#4]  ; _CaptureY
00008e  1a15              SUBS     r5,r2,r0
000090  e003              B        |L1.154|
                  |L1.146|
000092  6838              LDR      r0,[r7,#0]
000094  f8d82004          LDR      r2,[r8,#4]  ; _CaptureY
000098  1a85              SUBS     r5,r0,r2
                  |L1.154|
;;;318      }
;;;319      /* Check the minimal size of window */
;;;320      if ((Rect.x1 + dx + 1) < FRAMEWIN_MINSIZE_X) {
00009a  f9bd0004          LDRSH    r0,[sp,#4]
00009e  1c62              ADDS     r2,r4,#1
0000a0  4402              ADD      r2,r2,r0
0000a2  2a14              CMP      r2,#0x14
0000a4  da05              BGE      |L1.178|
;;;321        dx = FRAMEWIN_MINSIZE_X - Rect.x1 - 1;
0000a6  f1c00413          RSB      r4,r0,#0x13
;;;322        *px = _CaptureX + dx;
0000aa  f8d80000          LDR      r0,[r8,#0]  ; _CaptureX
0000ae  4420              ADD      r0,r0,r4
0000b0  6030              STR      r0,[r6,#0]
                  |L1.178|
;;;323      }
;;;324      if ((Rect.y1 + dy + 1) < FRAMEWIN_MINSIZE_Y) {
0000b2  f9bd0006          LDRSH    r0,[sp,#6]
0000b6  1c6a              ADDS     r2,r5,#1
0000b8  4402              ADD      r2,r2,r0
0000ba  2a14              CMP      r2,#0x14
0000bc  da05              BGE      |L1.202|
;;;325        dy = FRAMEWIN_MINSIZE_Y - Rect.y1 - 1;
0000be  f1c00513          RSB      r5,r0,#0x13
;;;326        *py = _CaptureY + dy;
0000c2  f8d80004          LDR      r0,[r8,#4]  ; _CaptureY
0000c6  4428              ADD      r0,r0,r5
0000c8  6038              STR      r0,[r7,#0]
                  |L1.202|
;;;327      }
;;;328      /* Set new window position */
;;;329      if (_CaptureFlags & FRAMEWIN_REPOS_X) {
0000ca  f0110f04          TST      r1,#4
0000ce  d004              BEQ      |L1.218|
;;;330        WM_MoveWindow(hWin, -dx, 0);
0000d0  2200              MOVS     r2,#0
0000d2  4261              RSBS     r1,r4,#0
0000d4  4648              MOV      r0,r9
0000d6  f7fffffe          BL       WM_MoveWindow
                  |L1.218|
;;;331      }
;;;332      if (_CaptureFlags & FRAMEWIN_REPOS_Y) {
0000da  f8d80008          LDR      r0,[r8,#8]  ; _CaptureFlags
0000de  f0100f08          TST      r0,#8
0000e2  d004              BEQ      |L1.238|
;;;333        WM_MoveWindow(hWin, 0, -dy);
0000e4  426a              RSBS     r2,r5,#0
0000e6  2100              MOVS     r1,#0
0000e8  4648              MOV      r0,r9
0000ea  f7fffffe          BL       WM_MoveWindow
                  |L1.238|
;;;334      }
;;;335      /* Set new window size */
;;;336      WM_ResizeWindow(hWin, dx, dy);
0000ee  462a              MOV      r2,r5
0000f0  4621              MOV      r1,r4
0000f2  4648              MOV      r0,r9
0000f4  f7fffffe          BL       WM_ResizeWindow
;;;337    }
0000f8  b003              ADD      sp,sp,#0xc
0000fa  e8bd83f0          POP      {r4-r9,pc}
;;;338    
                          ENDP

                  _CheckBorderX PROC
;;;342    */
;;;343    static int _CheckBorderX(int x, int x1, int Border) {
0000fe  4603              MOV      r3,r0
;;;344      int Mode = 0;
000100  2000              MOVS     r0,#0
;;;345      if (x > (x1 - Border)) {
000102  1a89              SUBS     r1,r1,r2
000104  4299              CMP      r1,r3
000106  da01              BGE      |L1.268|
;;;346        Mode = FRAMEWIN_RESIZE_X;
000108  2001              MOVS     r0,#1
                  |L1.266|
;;;347      } else if (x < (Border)) {
;;;348        Mode = FRAMEWIN_RESIZE_X | FRAMEWIN_REPOS_X;
;;;349      }
;;;350      return Mode;
;;;351    }
00010a  4770              BX       lr
                  |L1.268|
00010c  4293              CMP      r3,r2                 ;347
00010e  dafc              BGE      |L1.266|
000110  2005              MOVS     r0,#5                 ;348
000112  4770              BX       lr
;;;352    
                          ENDP

                  _CheckBorderY PROC
;;;356    */
;;;357    static int _CheckBorderY(int y, int y1, int Border) {
000114  4603              MOV      r3,r0
;;;358      int Mode = 0;
000116  2000              MOVS     r0,#0
;;;359      if (y > (y1 - Border)) {
000118  1a89              SUBS     r1,r1,r2
00011a  4299              CMP      r1,r3
00011c  da01              BGE      |L1.290|
;;;360        Mode = FRAMEWIN_RESIZE_Y;
00011e  2002              MOVS     r0,#2
                  |L1.288|
;;;361      } else if (y < (Border)) {
;;;362        Mode = FRAMEWIN_RESIZE_Y | FRAMEWIN_REPOS_Y;
;;;363      }
;;;364      return Mode;
;;;365    }
000120  4770              BX       lr
                  |L1.290|
000122  4293              CMP      r3,r2                 ;361
000124  dafc              BGE      |L1.288|
000126  200a              MOVS     r0,#0xa               ;362
000128  4770              BX       lr
;;;366    
                          ENDP

                  _CheckReactBorder PROC
;;;370    */
;;;371    static int _CheckReactBorder(FRAMEWIN_Handle hWin, int x, int y) {
00012a  b570              PUSH     {r4-r6,lr}
00012c  b082              SUB      sp,sp,#8
00012e  460d              MOV      r5,r1
000130  4616              MOV      r6,r2
;;;372      int Mode = 0;
000132  2400              MOVS     r4,#0
;;;373      GUI_RECT r;
;;;374      WM_GetClientRectEx(hWin, &r);
000134  4669              MOV      r1,sp
000136  f7fffffe          BL       WM_GetClientRectEx
;;;375      if ((x >= 0) && (y >= 0) && (x <= r.x1) && (y <= r.y1)) {
00013a  2d00              CMP      r5,#0
00013c  db26              BLT      |L1.396|
00013e  2e00              CMP      r6,#0
000140  db24              BLT      |L1.396|
000142  f9bd1004          LDRSH    r1,[sp,#4]
000146  42a9              CMP      r1,r5
000148  db20              BLT      |L1.396|
00014a  f9bd0006          LDRSH    r0,[sp,#6]
00014e  42b0              CMP      r0,r6
000150  db1c              BLT      |L1.396|
;;;376        Mode |=     _CheckBorderX(x, r.x1, FRAMEWIN_REACT_BORDER);
000152  2203              MOVS     r2,#3
000154  4628              MOV      r0,r5
000156  f7fffffe          BL       _CheckBorderX
00015a  4604              MOV      r4,r0
;;;377        if (Mode) {
00015c  b13c              CBZ      r4,|L1.366|
;;;378          Mode |=   _CheckBorderY(y, r.y1, FRAMEWIN_REACT_BORDER * 4);
00015e  f9bd1006          LDRSH    r1,[sp,#6]
000162  220c              MOVS     r2,#0xc
000164  4630              MOV      r0,r6
000166  f7fffffe          BL       _CheckBorderY
00016a  4304              ORRS     r4,r4,r0
00016c  e00e              B        |L1.396|
                  |L1.366|
;;;379        } else {
;;;380          Mode |=   _CheckBorderY(y, r.y1, FRAMEWIN_REACT_BORDER);
00016e  f9bd1006          LDRSH    r1,[sp,#6]
000172  2203              MOVS     r2,#3
000174  4630              MOV      r0,r6
000176  f7fffffe          BL       _CheckBorderY
00017a  4604              MOV      r4,r0
;;;381          if (Mode) {
00017c  b134              CBZ      r4,|L1.396|
;;;382            Mode |= _CheckBorderX(x, r.x1, FRAMEWIN_REACT_BORDER * 4);
00017e  f9bd1004          LDRSH    r1,[sp,#4]
000182  220c              MOVS     r2,#0xc
000184  4628              MOV      r0,r5
000186  f7fffffe          BL       _CheckBorderX
00018a  4304              ORRS     r4,r4,r0
                  |L1.396|
;;;383          }
;;;384        }
;;;385      }
;;;386      return Mode;
;;;387    }
00018c  b002              ADD      sp,sp,#8
00018e  4620              MOV      r0,r4                 ;386
000190  bd70              POP      {r4-r6,pc}
;;;388    
                          ENDP

                  _OnTouch PROC
;;;392    */
;;;393    static int _OnTouch(FRAMEWIN_Handle hWin, WM_MESSAGE* pMsg) {
000192  b570              PUSH     {r4-r6,lr}
000194  b082              SUB      sp,sp,#8
000196  4606              MOV      r6,r0
;;;394      const GUI_PID_STATE* pState = (const GUI_PID_STATE*)pMsg->Data.p;
000198  688c              LDR      r4,[r1,#8]
;;;395      if (pState) {  /* Something happened in our area (pressed or released) */
00019a  b3dc              CBZ      r4,|L1.532|
;;;396        int x, y, Mode;
;;;397        x    = pState->x;
00019c  6820              LDR      r0,[r4,#0]
00019e  9001              STR      r0,[sp,#4]
;;;398        y    = pState->y;
0001a0  6862              LDR      r2,[r4,#4]
0001a2  9200              STR      r2,[sp,#0]
;;;399        Mode = _CheckReactBorder(hWin, x, y);
0001a4  4630              MOV      r0,r6
0001a6  9901              LDR      r1,[sp,#4]
0001a8  f7fffffe          BL       _CheckReactBorder
0001ac  4605              MOV      r5,r0
;;;400        if (pState->Pressed == 1) {
0001ae  7a20              LDRB     r0,[r4,#8]
;;;401          if (_CaptureFlags & FRAMEWIN_RESIZE) {
0001b0  4c3c              LDR      r4,|L1.676|
0001b2  2801              CMP      r0,#1                 ;400
0001b4  d00c              BEQ      |L1.464|
;;;402            _ChangeWindowPosSize(hWin, &x, &y);
;;;403            _SetCapture(hWin, x, y, 0);
;;;404            return 1;
;;;405          } else if (Mode) {
;;;406            WM_SetFocus(hWin);
;;;407            WM_BringToTop(hWin);
;;;408            _SetCapture(hWin, x, y, Mode);
;;;409            return 1;
;;;410          }
;;;411          #if (GUI_SUPPORT_MOUSE & GUI_SUPPORT_CURSOR)
;;;412          else if (_CaptureFlags) {
;;;413            WM_ReleaseCapture();
;;;414            return 1;
;;;415          }
;;;416          #endif
;;;417        } else if (WM_HasCaptured(hWin)) {
0001b6  4630              MOV      r0,r6
0001b8  f7fffffe          BL       WM_HasCaptured
0001bc  b350              CBZ      r0,|L1.532|
;;;418          _CaptureFlags &= ~(FRAMEWIN_RESIZE);
0001be  68a0              LDR      r0,[r4,#8]  ; _CaptureFlags
0001c0  f020000f          BIC      r0,r0,#0xf
0001c4  60a0              STR      r0,[r4,#8]  ; _CaptureFlags
;;;419          #if (GUI_SUPPORT_MOUSE & GUI_SUPPORT_CURSOR)
;;;420            if (!Mode)
;;;421          #endif
;;;422          {
;;;423            WM_ReleaseCapture();
0001c6  f7fffffe          BL       WM_ReleaseCapture
;;;424          }
;;;425          return 1;
;;;426        }
;;;427      }
;;;428      return 0;
;;;429    }
0001ca  b002              ADD      sp,sp,#8
0001cc  2001              MOVS     r0,#1                 ;425
0001ce  bd70              POP      {r4-r6,pc}
                  |L1.464|
0001d0  68a0              LDR      r0,[r4,#8]            ;401  ; _CaptureFlags
0001d2  f0100f0f          TST      r0,#0xf               ;401
0001d6  d00d              BEQ      |L1.500|
0001d8  466a              MOV      r2,sp                 ;402
0001da  a901              ADD      r1,sp,#4              ;402
0001dc  4630              MOV      r0,r6                 ;402
0001de  f7fffffe          BL       _ChangeWindowPosSize
0001e2  2300              MOVS     r3,#0                 ;403
0001e4  4630              MOV      r0,r6                 ;403
0001e6  9a00              LDR      r2,[sp,#0]            ;403
0001e8  9901              LDR      r1,[sp,#4]            ;403
0001ea  f7fffffe          BL       _SetCapture
0001ee  b002              ADD      sp,sp,#8
0001f0  2001              MOVS     r0,#1                 ;404
0001f2  bd70              POP      {r4-r6,pc}
                  |L1.500|
0001f4  b175              CBZ      r5,|L1.532|
0001f6  4630              MOV      r0,r6                 ;406
0001f8  f7fffffe          BL       WM_SetFocus
0001fc  4630              MOV      r0,r6                 ;407
0001fe  f7fffffe          BL       WM_BringToTop
000202  462b              MOV      r3,r5                 ;408
000204  4630              MOV      r0,r6                 ;408
000206  9a00              LDR      r2,[sp,#0]            ;408
000208  9901              LDR      r1,[sp,#4]            ;408
00020a  f7fffffe          BL       _SetCapture
00020e  b002              ADD      sp,sp,#8
000210  2001              MOVS     r0,#1                 ;409
000212  bd70              POP      {r4-r6,pc}
                  |L1.532|
000214  e7ff              B        |L1.534|
                  |L1.534|
000216  b002              ADD      sp,sp,#8
000218  2000              MOVS     r0,#0                 ;428
00021a  bd70              POP      {r4-r6,pc}
;;;430    
                          ENDP

                  _HOOKFUNC_Resizeable PROC
;;;490    */
;;;491    static int _HOOKFUNC_Resizeable(WM_MESSAGE* pMsg) {
00021c  b570              PUSH     {r4-r6,lr}
00021e  4604              MOV      r4,r0
;;;492      WM_HWIN hWin = pMsg->hWin;
000220  f9b46004          LDRSH    r6,[r4,#4]
;;;493      if (WM_HasCaptured(hWin) && (_CaptureFlags == 0)) {
000224  4630              MOV      r0,r6
000226  f7fffffe          BL       WM_HasCaptured
00022a  4d1e              LDR      r5,|L1.676|
00022c  b108              CBZ      r0,|L1.562|
00022e  68a8              LDR      r0,[r5,#8]  ; _CaptureFlags
000230  b120              CBZ      r0,|L1.572|
                  |L1.562|
;;;494        return 0;
;;;495      }
;;;496      if (FRAMEWIN_IsMinimized(hWin) || FRAMEWIN_IsMaximized(hWin)) {
000232  4630              MOV      r0,r6
000234  f7fffffe          BL       FRAMEWIN_IsMinimized
000238  b930              CBNZ     r0,|L1.584|
00023a  e001              B        |L1.576|
                  |L1.572|
00023c  2000              MOVS     r0,#0                 ;494
;;;497        return 0;
;;;498      }
;;;499      switch(pMsg->MsgId) {
;;;500      case WM_TOUCH:
;;;501        return _OnTouch(hWin, pMsg);
;;;502    #if (GUI_SUPPORT_MOUSE & GUI_SUPPORT_CURSOR)
;;;503      case WM_MOUSEOVER:
;;;504        return _OnMouseOver(hWin, pMsg);
;;;505    #endif
;;;506      case WM_CAPTURE_RELEASED:
;;;507      #if GUI_SUPPORT_CURSOR
;;;508        _SetResizeCursor(0);
;;;509      #endif
;;;510        _CaptureFlags = 0;
;;;511        return 1;
;;;512      }
;;;513      return 0;
;;;514    }
00023e  bd70              POP      {r4-r6,pc}
                  |L1.576|
000240  4630              MOV      r0,r6                 ;496
000242  f7fffffe          BL       FRAMEWIN_IsMaximized
000246  b108              CBZ      r0,|L1.588|
                  |L1.584|
000248  2000              MOVS     r0,#0                 ;497
00024a  bd70              POP      {r4-r6,pc}
                  |L1.588|
00024c  6822              LDR      r2,[r4,#0]            ;499
00024e  2a0c              CMP      r2,#0xc               ;499
000250  d003              BEQ      |L1.602|
000252  2a18              CMP      r2,#0x18              ;499
000254  d006              BEQ      |L1.612|
000256  2000              MOVS     r0,#0                 ;513
000258  bd70              POP      {r4-r6,pc}
                  |L1.602|
00025a  4621              MOV      r1,r4                 ;501
00025c  4630              MOV      r0,r6                 ;501
00025e  e8bd4070          POP      {r4-r6,lr}            ;501
000262  e7fe              B        _OnTouch
                  |L1.612|
000264  2000              MOVS     r0,#0                 ;510
000266  60a8              STR      r0,[r5,#8]            ;510  ; _CaptureFlags
000268  2001              MOVS     r0,#1                 ;511
00026a  bd70              POP      {r4-r6,pc}
;;;515    
                          ENDP

                  FRAMEWIN_SetResizeable PROC
;;;525    */
;;;526    void FRAMEWIN_SetResizeable(FRAMEWIN_Handle hObj, int State) {
00026c  b570              PUSH     {r4-r6,lr}
00026e  4605              MOV      r5,r0
000270  460c              MOV      r4,r1
;;;527      if (hObj) {
000272  2d00              CMP      r5,#0
000274  d014              BEQ      |L1.672|
;;;528        FRAMEWIN_Obj* pObj;
;;;529        WM_LOCK();
000276  f7fffffe          BL       GUI_Lock
;;;530        pObj = FRAMEWIN_H2P(hObj);
00027a  4628              MOV      r0,r5
00027c  f7fffffe          BL       GUI_ALLOC_h2p
;;;531        if (pObj) {
000280  b150              CBZ      r0,|L1.664|
;;;532          if (State) {
000282  b12c              CBZ      r4,|L1.656|
;;;533            GUI_HOOK_Add(&pObj->pFirstHook, &_HOOK_Resizeable, &_HOOKFUNC_Resizeable);
000284  4a08              LDR      r2,|L1.680|
000286  4909              LDR      r1,|L1.684|
000288  3064              ADDS     r0,r0,#0x64
00028a  f7fffffe          BL       GUI_HOOK_Add
00028e  e003              B        |L1.664|
                  |L1.656|
;;;534          } else {
;;;535            GUI_HOOK_Remove(&pObj->pFirstHook, &_HOOK_Resizeable);
000290  4906              LDR      r1,|L1.684|
000292  3064              ADDS     r0,r0,#0x64
000294  f7fffffe          BL       GUI_HOOK_Remove
                  |L1.664|
;;;536          }
;;;537        }
;;;538        WM_UNLOCK();
000298  e8bd4070          POP      {r4-r6,lr}
00029c  f7ffbffe          B.W      GUI_Unlock
                  |L1.672|
;;;539      }
;;;540    }
0002a0  bd70              POP      {r4-r6,pc}
;;;541    
                          ENDP

0002a2  0000              DCW      0x0000
                  |L1.676|
                          DCD      ||.data||
                  |L1.680|
                          DCD      _HOOKFUNC_Resizeable
                  |L1.684|
                          DCD      ||.data||+0xc

                          AREA ||.data||, DATA, ALIGN=2

                  _CaptureX
                          DCD      0x00000000
                  _CaptureY
                          DCD      0x00000000
                  _CaptureFlags
                          DCD      0x00000000
                  _HOOK_Resizeable
                          %        8
