; generated by ARM C/C++ Compiler, 4.1 [Build 481]
; commandline ArmCC [--debug -c --asm --interleave -o.\rvmdk\framewin_minmaxrest.o --depend=.\rvmdk\framewin_minmaxrest.d --cpu=Cortex-M3 --apcs=interwork -O1 -Otime -I. -I..\BSP -I..\..\..\..\..\uCOS-II\Ports\arm-cortex-m3\Generic\RealView -I..\..\..\..\..\uCOS-II\Source -I..\..\..\..\..\CPU\ST\STM32\inc -I..\..\..\..\..\uC-CPU -I..\..\..\..\..\uC-CPU\Arm-Cortex-M3\RealView -I..\..\..\..\..\uC-LIB -I..\..\..\..\..\uC-Probe\Target\Plugins\uCOS-II -I..\..\..\..\..\uC-Probe\Target\Communication\Generic\Source -I..\..\..\..\..\uC-Probe\Target\Communication\Generic\RS-232\Ports\ST\STM32 -I..\..\..\..\..\uC-Probe\Target\Communication\Generic\RS-232\Source -I..\..\..\..\..\User\inc -I..\..\..\..\..\uCGUI\Config -I..\..\..\..\..\uCGUI\GUIDemo -I..\..\..\..\..\uCGUI\LCDDriver -I..\..\..\..\..\uCGUI\GUI\AntiAlias -I..\..\..\..\..\uCGUI\GUI\ConvertColor -I..\..\..\..\..\uCGUI\GUI\ConvertMono -I..\..\..\..\..\uCGUI\GUI\Core -I..\..\..\..\..\uCGUI\GUI\Font -I..\..\..\..\..\uCGUI\GUI\LCDDriver -I..\..\..\..\..\uCGUI\GUI\MemDev -I..\..\..\..\..\uCGUI\GUI\MultiLayer -I..\..\..\..\..\uCGUI\GUI\Widget -I..\..\..\..\..\uCGUI\GUI\WM -Id:\Keil-stm32\ARM\INC -Id:\Keil-stm32\ARM\INC\ST\STM32F10x -D__MICROLIB --omf_browse=.\rvmdk\framewin_minmaxrest.crf ..\..\..\..\..\uCGUI\GUI\Widget\FRAMEWIN_MinMaxRest.c]
                          THUMB

                          AREA ||.text||, CODE, READONLY, ALIGN=1

                  _InvalidateButton PROC
;;;38     */
;;;39     static void _InvalidateButton(FRAMEWIN_Obj* pObj, int Id) {
000000  b570              PUSH     {r4-r6,lr}
000002  460d              MOV      r5,r1
;;;40       WM_HWIN hChild;
;;;41       WM_Obj* pChild;
;;;42       for (hChild = pObj->Widget.Win.hFirstChild; hChild; hChild = pChild->hNext) {
000004  f9b04018          LDRSH    r4,[r0,#0x18]
000008  2c00              CMP      r4,#0
00000a  d00f              BEQ      |L1.44|
                  |L1.12|
;;;43         pChild = WM_H2P(hChild);
00000c  4620              MOV      r0,r4
00000e  f7fffffe          BL       GUI_ALLOC_h2p
000012  4606              MOV      r6,r0
;;;44         if (WM_GetId(hChild) == Id) {
000014  4620              MOV      r0,r4
000016  f7fffffe          BL       WM_GetId
00001a  42a8              CMP      r0,r5
00001c  d102              BNE      |L1.36|
;;;45           WM_InvalidateWindow(hChild);
00001e  4620              MOV      r0,r4
000020  f7fffffe          BL       WM_InvalidateWindow
                  |L1.36|
000024  f9b6401a          LDRSH    r4,[r6,#0x1a]         ;42
000028  2c00              CMP      r4,#0                 ;42
00002a  d1ef              BNE      |L1.12|
                  |L1.44|
;;;46         }
;;;47       }
;;;48     }
00002c  bd70              POP      {r4-r6,pc}
;;;49     
                          ENDP

                  _RestoreMinimized PROC
;;;53     */
;;;54     static void _RestoreMinimized(FRAMEWIN_Handle hObj, FRAMEWIN_Obj* pObj) {
00002e  b510              PUSH     {r4,lr}
000030  4603              MOV      r3,r0
000032  460c              MOV      r4,r1
;;;55       /* When window was minimized, restore it */
;;;56       if (pObj->Flags & FRAMEWIN_SF_MINIMIZED) {
000034  f8b4005a          LDRH     r0,[r4,#0x5a]
000038  f0100f40          TST      r0,#0x40
00003c  d026              BEQ      |L1.140|
;;;57         int OldHeight = 1 + pObj->Widget.Win.Rect.y1 - pObj->Widget.Win.Rect.y0;
00003e  f9b40006          LDRSH    r0,[r4,#6]
000042  f9b41002          LDRSH    r1,[r4,#2]
000046  1a40              SUBS     r0,r0,r1
000048  1c40              ADDS     r0,r0,#1
;;;58         int NewHeight = 1 + pObj->rRestore.y1 - pObj->rRestore.y0;
00004a  f9b41058          LDRSH    r1,[r4,#0x58]
00004e  f9b42054          LDRSH    r2,[r4,#0x54]
000052  1a89              SUBS     r1,r1,r2
000054  1c49              ADDS     r1,r1,#1
;;;59         WM_ResizeWindow(hObj, 0, NewHeight - OldHeight);
000056  1a0a              SUBS     r2,r1,r0
000058  2100              MOVS     r1,#0
00005a  4618              MOV      r0,r3
00005c  f7fffffe          BL       WM_ResizeWindow
;;;60         WM_ShowWindow(pObj->hClient);
000060  f9b4004c          LDRSH    r0,[r4,#0x4c]
000064  f7fffffe          BL       WM_ShowWindow
;;;61         WM_ShowWindow(pObj->hMenu);
000068  f9b4004e          LDRSH    r0,[r4,#0x4e]
00006c  f7fffffe          BL       WM_ShowWindow
;;;62         FRAMEWIN__UpdatePositions(pObj);
000070  4620              MOV      r0,r4
000072  f7fffffe          BL       FRAMEWIN__UpdatePositions
;;;63         pObj->Flags &= ~FRAMEWIN_SF_MINIMIZED;
000076  f8b4005a          LDRH     r0,[r4,#0x5a]
00007a  f0200040          BIC      r0,r0,#0x40
00007e  f8a4005a          STRH     r0,[r4,#0x5a]
;;;64         _InvalidateButton(pObj, GUI_ID_MINIMIZE);
000082  4620              MOV      r0,r4
000084  e8bd4010          POP      {r4,lr}
000088  2108              MOVS     r1,#8
00008a  e7fe              B        _InvalidateButton
                  |L1.140|
;;;65       }
;;;66     }
00008c  bd10              POP      {r4,pc}
;;;67     
                          ENDP

                  _RestoreMaximized PROC
;;;71     */
;;;72     static void _RestoreMaximized(FRAMEWIN_Handle hObj, FRAMEWIN_Obj* pObj) {
00008e  b5f0              PUSH     {r4-r7,lr}
000090  b083              SUB      sp,sp,#0xc
000092  4607              MOV      r7,r0
000094  460c              MOV      r4,r1
;;;73       /* When window was maximized, restore it */
;;;74       if (pObj->Flags & FRAMEWIN_SF_MAXIMIZED) {
000096  f8b4005a          LDRH     r0,[r4,#0x5a]
00009a  f0100f80          TST      r0,#0x80
00009e  d028              BEQ      |L1.242|
;;;75         GUI_RECT r = pObj->rRestore;
0000a0  f8d40052          LDR      r0,[r4,#0x52]
0000a4  9000              STR      r0,[sp,#0]
0000a6  f8d40056          LDR      r0,[r4,#0x56]
0000aa  9001              STR      r0,[sp,#4]
;;;76         WM_MoveTo(hObj, r.x0, r.y0);
0000ac  f9bd6002          LDRSH    r6,[sp,#2]
0000b0  f9bd5000          LDRSH    r5,[sp,#0]
0000b4  4632              MOV      r2,r6
0000b6  4629              MOV      r1,r5
0000b8  4638              MOV      r0,r7
0000ba  f7fffffe          BL       WM_MoveTo
;;;77         WM_SetSize(hObj, r.x1 - r.x0 + 1, r.y1 - r.y0 + 1);
0000be  f9bd0006          LDRSH    r0,[sp,#6]
0000c2  1b80              SUBS     r0,r0,r6
0000c4  1c42              ADDS     r2,r0,#1
0000c6  f9bd0004          LDRSH    r0,[sp,#4]
0000ca  1b40              SUBS     r0,r0,r5
0000cc  1c41              ADDS     r1,r0,#1
0000ce  4638              MOV      r0,r7
0000d0  f7fffffe          BL       WM_SetSize
;;;78         FRAMEWIN__UpdatePositions(pObj);
0000d4  4620              MOV      r0,r4
0000d6  f7fffffe          BL       FRAMEWIN__UpdatePositions
;;;79         pObj->Flags &= ~FRAMEWIN_SF_MAXIMIZED;
0000da  f8b4005a          LDRH     r0,[r4,#0x5a]
0000de  f0200080          BIC      r0,r0,#0x80
0000e2  f8a4005a          STRH     r0,[r4,#0x5a]
;;;80         _InvalidateButton(pObj, GUI_ID_MAXIMIZE);
0000e6  b003              ADD      sp,sp,#0xc
0000e8  4620              MOV      r0,r4
0000ea  e8bd40f0          POP      {r4-r7,lr}
0000ee  2107              MOVS     r1,#7
0000f0  e7fe              B        _InvalidateButton
                  |L1.242|
;;;81       }
;;;82     }
0000f2  b003              ADD      sp,sp,#0xc
0000f4  bdf0              POP      {r4-r7,pc}
;;;83     
                          ENDP

                  _MinimizeFramewin PROC
;;;87     */
;;;88     static void _MinimizeFramewin(FRAMEWIN_Handle hObj, FRAMEWIN_Obj* pObj) {
0000f6  e92d41f0          PUSH     {r4-r8,lr}
0000fa  4607              MOV      r7,r0
0000fc  460c              MOV      r4,r1
;;;89       _RestoreMaximized(hObj, pObj);
0000fe  4621              MOV      r1,r4
000100  4638              MOV      r0,r7
000102  f7fffffe          BL       _RestoreMaximized
;;;90       /* When window is not minimized, minimize it */
;;;91       if ((pObj->Flags & FRAMEWIN_SF_MINIMIZED) == 0) {
000106  f8b4005a          LDRH     r0,[r4,#0x5a]
00010a  f0100f40          TST      r0,#0x40
00010e  d12e              BNE      |L1.366|
;;;92         int OldHeight = pObj->Widget.Win.Rect.y1 - pObj->Widget.Win.Rect.y0 + 1;
000110  f9b40006          LDRSH    r0,[r4,#6]
000114  f9b41002          LDRSH    r1,[r4,#2]
000118  1a40              SUBS     r0,r0,r1
00011a  1c45              ADDS     r5,r0,#1
;;;93         int NewHeight = FRAMEWIN__CalcTitleHeight(pObj) + pObj->Widget.pEffect->EffectSize * 2 + 2;    
00011c  4620              MOV      r0,r4
00011e  f7fffffe          BL       FRAMEWIN__CalcTitleHeight
000122  6a21              LDR      r1,[r4,#0x20]
000124  6949              LDR      r1,[r1,#0x14]
000126  eb000041          ADD      r0,r0,r1,LSL #1
00012a  1c86              ADDS     r6,r0,#2
;;;94         pObj->rRestore = pObj->Widget.Win.Rect;
00012c  6820              LDR      r0,[r4,#0]
00012e  f8c40052          STR      r0,[r4,#0x52]
000132  6860              LDR      r0,[r4,#4]
000134  f8c40056          STR      r0,[r4,#0x56]
;;;95         WM_HideWindow(pObj->hClient);
000138  f9b4004c          LDRSH    r0,[r4,#0x4c]
00013c  f7fffffe          BL       WM_HideWindow
;;;96         WM_HideWindow(pObj->hMenu);
000140  f9b4004e          LDRSH    r0,[r4,#0x4e]
000144  f7fffffe          BL       WM_HideWindow
;;;97         WM_ResizeWindow(hObj, 0, NewHeight - OldHeight);
000148  1b72              SUBS     r2,r6,r5
00014a  2100              MOVS     r1,#0
00014c  4638              MOV      r0,r7
00014e  f7fffffe          BL       WM_ResizeWindow
;;;98         FRAMEWIN__UpdatePositions(pObj);
000152  4620              MOV      r0,r4
000154  f7fffffe          BL       FRAMEWIN__UpdatePositions
;;;99         pObj->Flags |= FRAMEWIN_SF_MINIMIZED;
000158  f8b4005a          LDRH     r0,[r4,#0x5a]
00015c  f0400040          ORR      r0,r0,#0x40
000160  f8a4005a          STRH     r0,[r4,#0x5a]
;;;100        _InvalidateButton(pObj, GUI_ID_MINIMIZE);
000164  4620              MOV      r0,r4
000166  e8bd41f0          POP      {r4-r8,lr}
00016a  2108              MOVS     r1,#8
00016c  e7fe              B        _InvalidateButton
                  |L1.366|
;;;101      }
;;;102    }
00016e  e8bd81f0          POP      {r4-r8,pc}
;;;103    
                          ENDP

                  _MaximizeFramewin PROC
;;;107    */
;;;108    static void _MaximizeFramewin(FRAMEWIN_Handle hObj, FRAMEWIN_Obj* pObj) {
000172  b5f0              PUSH     {r4-r7,lr}
000174  b083              SUB      sp,sp,#0xc
000176  4607              MOV      r7,r0
000178  460c              MOV      r4,r1
;;;109      _RestoreMinimized(hObj, pObj);
00017a  4621              MOV      r1,r4
00017c  4638              MOV      r0,r7
00017e  f7fffffe          BL       _RestoreMinimized
;;;110      /* When window is not maximized, maximize it */
;;;111      if ((pObj->Flags & FRAMEWIN_SF_MAXIMIZED) == 0) {
000182  f8b4005a          LDRH     r0,[r4,#0x5a]
000186  f0100f80          TST      r0,#0x80
00018a  d13a              BNE      |L1.514|
;;;112        WM_HWIN hParent = pObj->Widget.Win.hParent;
00018c  f9b40016          LDRSH    r0,[r4,#0x16]
;;;113        WM_Obj* pParent = WM_H2P(hParent);
000190  f7fffffe          BL       GUI_ALLOC_h2p
;;;114        GUI_RECT r = pParent->Rect;
000194  6842              LDR      r2,[r0,#4]
000196  6801              LDR      r1,[r0,#0]
000198  9201              STR      r2,[sp,#4]
00019a  9100              STR      r1,[sp,#0]
;;;115        if (pParent->hParent == 0) {
00019c  8ac0              LDRH     r0,[r0,#0x16]
00019e  b938              CBNZ     r0,|L1.432|
;;;116          r.x1 = LCD_GetXSize();
0001a0  f7fffffe          BL       LCD_GetXSize
0001a4  f8ad0004          STRH     r0,[sp,#4]
;;;117          r.y1 = LCD_GetYSize();
0001a8  f7fffffe          BL       LCD_GetYSize
0001ac  f8ad0006          STRH     r0,[sp,#6]
                  |L1.432|
;;;118        }
;;;119        pObj->rRestore = pObj->Widget.Win.Rect;
0001b0  6820              LDR      r0,[r4,#0]
0001b2  f8c40052          STR      r0,[r4,#0x52]
0001b6  6860              LDR      r0,[r4,#4]
0001b8  f8c40056          STR      r0,[r4,#0x56]
;;;120        WM_MoveTo(hObj, r.x0, r.y0);
0001bc  f9bd5002          LDRSH    r5,[sp,#2]
0001c0  f9bd6000          LDRSH    r6,[sp,#0]
0001c4  462a              MOV      r2,r5
0001c6  4631              MOV      r1,r6
0001c8  4638              MOV      r0,r7
0001ca  f7fffffe          BL       WM_MoveTo
;;;121        WM_SetSize(hObj, r.x1 - r.x0 + 1, r.y1 - r.y0 + 1);
0001ce  f9bd0006          LDRSH    r0,[sp,#6]
0001d2  1b40              SUBS     r0,r0,r5
0001d4  1c42              ADDS     r2,r0,#1
0001d6  f9bd0004          LDRSH    r0,[sp,#4]
0001da  1b80              SUBS     r0,r0,r6
0001dc  1c41              ADDS     r1,r0,#1
0001de  4638              MOV      r0,r7
0001e0  f7fffffe          BL       WM_SetSize
;;;122        FRAMEWIN__UpdatePositions(pObj);
0001e4  4620              MOV      r0,r4
0001e6  f7fffffe          BL       FRAMEWIN__UpdatePositions
;;;123        pObj->Flags |= FRAMEWIN_SF_MAXIMIZED;
0001ea  f8b4005a          LDRH     r0,[r4,#0x5a]
0001ee  f0400080          ORR      r0,r0,#0x80
0001f2  f8a4005a          STRH     r0,[r4,#0x5a]
;;;124        _InvalidateButton(pObj, GUI_ID_MAXIMIZE);
0001f6  b003              ADD      sp,sp,#0xc
0001f8  4620              MOV      r0,r4
0001fa  e8bd40f0          POP      {r4-r7,lr}
0001fe  2107              MOVS     r1,#7
000200  e7fe              B        _InvalidateButton
                  |L1.514|
;;;125      }
;;;126    }
000202  b003              ADD      sp,sp,#0xc
000204  bdf0              POP      {r4-r7,pc}
;;;127    
                          ENDP

                  FRAMEWIN_Minimize PROC
;;;137    */
;;;138    void FRAMEWIN_Minimize(FRAMEWIN_Handle hObj) {
000206  b510              PUSH     {r4,lr}
000208  4604              MOV      r4,r0
;;;139      if (hObj) {
00020a  2c00              CMP      r4,#0
00020c  d00c              BEQ      |L1.552|
;;;140        FRAMEWIN_Obj* pObj;
;;;141        WM_LOCK();
00020e  f7fffffe          BL       GUI_Lock
;;;142        pObj = FRAMEWIN_H2P(hObj);
000212  4620              MOV      r0,r4
000214  f7fffffe          BL       GUI_ALLOC_h2p
;;;143        _MinimizeFramewin(hObj, pObj);
000218  4601              MOV      r1,r0
00021a  4620              MOV      r0,r4
00021c  f7fffffe          BL       _MinimizeFramewin
;;;144        WM_UNLOCK();
000220  e8bd4010          POP      {r4,lr}
000224  f7ffbffe          B.W      GUI_Unlock
                  |L1.552|
;;;145      }
;;;146    }
000228  bd10              POP      {r4,pc}
;;;147    
                          ENDP

                  FRAMEWIN_Maximize PROC
;;;151    */
;;;152    void FRAMEWIN_Maximize(FRAMEWIN_Handle hObj) {
00022a  b510              PUSH     {r4,lr}
00022c  4604              MOV      r4,r0
;;;153      if (hObj) {
00022e  2c00              CMP      r4,#0
000230  d00c              BEQ      |L1.588|
;;;154        FRAMEWIN_Obj* pObj;
;;;155        WM_LOCK();
000232  f7fffffe          BL       GUI_Lock
;;;156        pObj = FRAMEWIN_H2P(hObj);
000236  4620              MOV      r0,r4
000238  f7fffffe          BL       GUI_ALLOC_h2p
;;;157        _MaximizeFramewin(hObj, pObj);
00023c  4601              MOV      r1,r0
00023e  4620              MOV      r0,r4
000240  f7fffffe          BL       _MaximizeFramewin
;;;158        WM_UNLOCK();
000244  e8bd4010          POP      {r4,lr}
000248  f7ffbffe          B.W      GUI_Unlock
                  |L1.588|
;;;159      }
;;;160    }
00024c  bd10              POP      {r4,pc}
;;;161    
                          ENDP

                  FRAMEWIN_Restore PROC
;;;165    */
;;;166    void FRAMEWIN_Restore(FRAMEWIN_Handle hObj) {
00024e  b570              PUSH     {r4-r6,lr}
000250  4604              MOV      r4,r0
;;;167      if (hObj) {
000252  2c00              CMP      r4,#0
000254  d011              BEQ      |L1.634|
;;;168        FRAMEWIN_Obj* pObj;
;;;169        WM_LOCK();
000256  f7fffffe          BL       GUI_Lock
;;;170        pObj = FRAMEWIN_H2P(hObj);
00025a  4620              MOV      r0,r4
00025c  f7fffffe          BL       GUI_ALLOC_h2p
000260  4605              MOV      r5,r0
;;;171        _RestoreMinimized(hObj, pObj);
000262  4629              MOV      r1,r5
000264  4620              MOV      r0,r4
000266  f7fffffe          BL       _RestoreMinimized
;;;172        _RestoreMaximized(hObj, pObj);
00026a  4629              MOV      r1,r5
00026c  4620              MOV      r0,r4
00026e  f7fffffe          BL       _RestoreMaximized
;;;173        WM_UNLOCK();
000272  e8bd4070          POP      {r4-r6,lr}
000276  f7ffbffe          B.W      GUI_Unlock
                  |L1.634|
;;;174      }
;;;175    }
00027a  bd70              POP      {r4-r6,pc}
;;;176    
                          ENDP

