; generated by ARM C/C++ Compiler, 4.1 [Build 481]
; commandline ArmCC [--debug -c --asm --interleave -o.\rvmdk\framewin_setbordersize.o --depend=.\rvmdk\framewin_setbordersize.d --cpu=Cortex-M3 --apcs=interwork -O1 -Otime -I. -I..\BSP -I..\..\..\..\..\uCOS-II\Ports\arm-cortex-m3\Generic\RealView -I..\..\..\..\..\uCOS-II\Source -I..\..\..\..\..\CPU\ST\STM32\inc -I..\..\..\..\..\uC-CPU -I..\..\..\..\..\uC-CPU\Arm-Cortex-M3\RealView -I..\..\..\..\..\uC-LIB -I..\..\..\..\..\uC-Probe\Target\Plugins\uCOS-II -I..\..\..\..\..\uC-Probe\Target\Communication\Generic\Source -I..\..\..\..\..\uC-Probe\Target\Communication\Generic\RS-232\Ports\ST\STM32 -I..\..\..\..\..\uC-Probe\Target\Communication\Generic\RS-232\Source -I..\..\..\..\..\User\inc -I..\..\..\..\..\uCGUI\Config -I..\..\..\..\..\uCGUI\GUIDemo -I..\..\..\..\..\uCGUI\LCDDriver -I..\..\..\..\..\uCGUI\GUI\AntiAlias -I..\..\..\..\..\uCGUI\GUI\ConvertColor -I..\..\..\..\..\uCGUI\GUI\ConvertMono -I..\..\..\..\..\uCGUI\GUI\Core -I..\..\..\..\..\uCGUI\GUI\Font -I..\..\..\..\..\uCGUI\GUI\LCDDriver -I..\..\..\..\..\uCGUI\GUI\MemDev -I..\..\..\..\..\uCGUI\GUI\MultiLayer -I..\..\..\..\..\uCGUI\GUI\Widget -I..\..\..\..\..\uCGUI\GUI\WM -Id:\Keil-stm32\ARM\INC -Id:\Keil-stm32\ARM\INC\ST\STM32F10x -D__MICROLIB --omf_browse=.\rvmdk\framewin_setbordersize.crf ..\..\..\..\..\uCGUI\GUI\Widget\FRAMEWIN_SetBorderSize.c]
                          THUMB

                          AREA ||.text||, CODE, READONLY, ALIGN=1

                  FRAMEWIN_SetBorderSize PROC
;;;35     */
;;;36     void FRAMEWIN_SetBorderSize(FRAMEWIN_Handle hObj, unsigned Size) {
000000  e92d4ff0          PUSH     {r4-r11,lr}
000004  b083              SUB      sp,sp,#0xc
000006  4683              MOV      r11,r0
000008  4688              MOV      r8,r1
;;;37       GUI_LOCK();
00000a  f7fffffe          BL       GUI_Lock
;;;38       if (hObj) {
00000e  f1bb0f00          CMP      r11,#0
000012  d048              BEQ      |L1.166|
;;;39         GUI_RECT r;
;;;40         WM_Obj * pChild;
;;;41         int Diff, OldSize, OldHeight;
;;;42         WM_HWIN hChild;
;;;43         FRAMEWIN_Obj* pObj = FRAMEWIN_H2P(hObj);
000014  4658              MOV      r0,r11
000016  f7fffffe          BL       GUI_ALLOC_h2p
00001a  4604              MOV      r4,r0
;;;44         OldHeight          = FRAMEWIN__CalcTitleHeight(pObj);
00001c  4620              MOV      r0,r4
00001e  f7fffffe          BL       FRAMEWIN__CalcTitleHeight
000022  4682              MOV      r10,r0
;;;45         OldSize            = pObj->Props.BorderSize;
000024  f9b40042          LDRSH    r0,[r4,#0x42]
;;;46         Diff               = Size - OldSize;
000028  eba80900          SUB      r9,r8,r0
;;;47         for (hChild = pObj->Widget.Win.hFirstChild; hChild; hChild = pChild->hNext) {
00002c  f9b46018          LDRSH    r6,[r4,#0x18]
000030  b38e              CBZ      r6,|L1.150|
;;;48           pChild = WM_H2P(hChild);
;;;49           r = pChild->Rect;
;;;50           GUI_MoveRect(&r, -pObj->Widget.Win.Rect.x0, -pObj->Widget.Win.Rect.y0);
;;;51           if ((r.y0 == pObj->Props.BorderSize) && ((r.y1 - r.y0 + 1) == OldHeight)) {
;;;52             if (pChild->Status & WM_SF_ANCHOR_RIGHT) {
;;;53               WM_MoveWindow(hChild, -Diff, Diff);
000032  f1c90700          RSB      r7,r9,#0
                  |L1.54|
000036  4630              MOV      r0,r6                 ;48
000038  f7fffffe          BL       GUI_ALLOC_h2p
00003c  4605              MOV      r5,r0                 ;48
00003e  6869              LDR      r1,[r5,#4]            ;49
000040  6828              LDR      r0,[r5,#0]            ;49
000042  9101              STR      r1,[sp,#4]            ;49
000044  9000              STR      r0,[sp,#0]            ;49
000046  f9b40002          LDRSH    r0,[r4,#2]            ;50
00004a  4242              RSBS     r2,r0,#0              ;50
00004c  f9b40000          LDRSH    r0,[r4,#0]            ;50
000050  4241              RSBS     r1,r0,#0              ;50
000052  4668              MOV      r0,sp                 ;50
000054  f7fffffe          BL       GUI_MoveRect
000058  f9bd0002          LDRSH    r0,[sp,#2]            ;51
00005c  f9b41042          LDRSH    r1,[r4,#0x42]         ;51
000060  4288              CMP      r0,r1                 ;51
000062  d114              BNE      |L1.142|
000064  f9bd1006          LDRSH    r1,[sp,#6]            ;51
000068  1a08              SUBS     r0,r1,r0              ;51
00006a  1c40              ADDS     r0,r0,#1              ;51
00006c  4550              CMP      r0,r10                ;51
00006e  d10e              BNE      |L1.142|
000070  8ba8              LDRH     r0,[r5,#0x1c]         ;52
000072  f0100f80          TST      r0,#0x80              ;52
000076  d005              BEQ      |L1.132|
000078  464a              MOV      r2,r9
00007a  4639              MOV      r1,r7
00007c  4630              MOV      r0,r6
00007e  f7fffffe          BL       WM_MoveWindow
000082  e004              B        |L1.142|
                  |L1.132|
;;;54             } else {
;;;55               WM_MoveWindow(hChild, Diff, Diff);
000084  464a              MOV      r2,r9
000086  4649              MOV      r1,r9
000088  4630              MOV      r0,r6
00008a  f7fffffe          BL       WM_MoveWindow
                  |L1.142|
00008e  f9b5601a          LDRSH    r6,[r5,#0x1a]         ;47
000092  2e00              CMP      r6,#0                 ;47
000094  d1cf              BNE      |L1.54|
                  |L1.150|
;;;56             }
;;;57           }
;;;58         }
;;;59         pObj->Props.BorderSize   = Size;
000096  f8a48042          STRH     r8,[r4,#0x42]
;;;60         FRAMEWIN__UpdatePositions(pObj);
00009a  4620              MOV      r0,r4
00009c  f7fffffe          BL       FRAMEWIN__UpdatePositions
;;;61         FRAMEWIN_Invalidate(hObj);
0000a0  4658              MOV      r0,r11
0000a2  f7fffffe          BL       WM_InvalidateWindow
                  |L1.166|
;;;62       }
;;;63       GUI_UNLOCK();
0000a6  b003              ADD      sp,sp,#0xc
0000a8  e8bd4ff0          POP      {r4-r11,lr}
0000ac  f7ffbffe          B.W      GUI_Unlock
;;;64     }
;;;65     
                          ENDP

