; generated by ARM C/C++ Compiler, 4.1 [Build 481]
; commandline ArmCC [--debug -c --asm --interleave -o.\rvmdk\graph.o --depend=.\rvmdk\graph.d --cpu=Cortex-M3 --apcs=interwork -O1 -Otime -I. -I..\BSP -I..\..\..\..\..\uCOS-II\Ports\arm-cortex-m3\Generic\RealView -I..\..\..\..\..\uCOS-II\Source -I..\..\..\..\..\CPU\ST\STM32\inc -I..\..\..\..\..\uC-CPU -I..\..\..\..\..\uC-CPU\Arm-Cortex-M3\RealView -I..\..\..\..\..\uC-LIB -I..\..\..\..\..\uC-Probe\Target\Plugins\uCOS-II -I..\..\..\..\..\uC-Probe\Target\Communication\Generic\Source -I..\..\..\..\..\uC-Probe\Target\Communication\Generic\RS-232\Ports\ST\STM32 -I..\..\..\..\..\uC-Probe\Target\Communication\Generic\RS-232\Source -I..\..\..\..\..\User\inc -I..\..\..\..\..\uCGUI\Config -I..\..\..\..\..\uCGUI\GUIDemo -I..\..\..\..\..\uCGUI\LCDDriver -I..\..\..\..\..\uCGUI\GUI\AntiAlias -I..\..\..\..\..\uCGUI\GUI\ConvertColor -I..\..\..\..\..\uCGUI\GUI\ConvertMono -I..\..\..\..\..\uCGUI\GUI\Core -I..\..\..\..\..\uCGUI\GUI\Font -I..\..\..\..\..\uCGUI\GUI\LCDDriver -I..\..\..\..\..\uCGUI\GUI\MemDev -I..\..\..\..\..\uCGUI\GUI\MultiLayer -I..\..\..\..\..\uCGUI\GUI\Widget -I..\..\..\..\..\uCGUI\GUI\WM -Id:\Keil-stm32\ARM\INC -Id:\Keil-stm32\ARM\INC\ST\STM32F10x -D__MICROLIB --omf_browse=.\rvmdk\graph.crf ..\..\..\..\..\uCGUI\GUI\Widget\GRAPH.c]
                          THUMB

                          AREA ||.text||, CODE, READONLY, ALIGN=2

                  _DrawGrid PROC
;;;91     */
;;;92     static void _DrawGrid(GRAPH_OBJ * pObj, GRAPH_Handle hObj, unsigned BorderL, unsigned BorderT, unsigned BorderR, unsigned BorderB) {
000000  e92d4fff          PUSH     {r0-r11,lr}
000004  b085              SUB      sp,sp,#0x14
000006  4604              MOV      r4,r0
000008  f8dd804c          LDR      r8,[sp,#0x4c]
00000c  4608              MOV      r0,r1
00000e  4691              MOV      r9,r2
;;;93       GUI_RECT Rect;
;;;94       U8 LineStyleOld;
;;;95       int i, xSize, ySize, xSpace, ySpace, EffectSize;
;;;96       WM_GetInsideRectExScrollbar(hObj, &Rect);
000010  a902              ADD      r1,sp,#8
000012  f7fffffe          BL       WM_GetInsideRectExScrollbar
;;;97       EffectSize = pObj->Widget.pEffect->EffectSize;
000016  6a20              LDR      r0,[r4,#0x20]
000018  6940              LDR      r0,[r0,#0x14]
00001a  9000              STR      r0,[sp,#0]
;;;98       xSpace = pObj->Props.GridSpacingX;
00001c  6ba7              LDR      r7,[r4,#0x38]
;;;99       ySpace = pObj->Props.GridSpacingY;
00001e  6be6              LDR      r6,[r4,#0x3c]
;;;100      xSize = Rect.x1 - Rect.x0 + 1 - BorderL - BorderR;
000020  f9bd000c          LDRSH    r0,[sp,#0xc]
000024  f9bd1008          LDRSH    r1,[sp,#8]
000028  1a40              SUBS     r0,r0,r1
00002a  eba00109          SUB      r1,r0,r9
00002e  9812              LDR      r0,[sp,#0x48]
000030  1a08              SUBS     r0,r1,r0
000032  f1000b01          ADD      r11,r0,#1
;;;101      ySize = Rect.y1 - Rect.y0 + 1 - BorderT - BorderB;
000036  f9bd000e          LDRSH    r0,[sp,#0xe]
00003a  f9bd100a          LDRSH    r1,[sp,#0xa]
00003e  1a41              SUBS     r1,r0,r1
000040  9808              LDR      r0,[sp,#0x20]
000042  1a08              SUBS     r0,r1,r0
000044  eba00008          SUB      r0,r0,r8
000048  f1000a01          ADD      r10,r0,#1
;;;102      GUI_SetColor(pObj->Props.aColor[GRAPH_CI_GRID]);
00004c  6b60              LDR      r0,[r4,#0x34]
00004e  f7fffffe          BL       GUI_SetColor
;;;103      LineStyleOld = GUI_GetLineStyle();
000052  f7fffffe          BL       GUI_GetLineStyle
000056  9001              STR      r0,[sp,#4]
;;;104      if (xSpace) {
000058  b38f              CBZ      r7,|L1.190|
;;;105        int FirstPosX;
;;;106        FirstPosX = xSpace + pObj->Props.GridOffX + ((pObj->Flags & GRAPH_CF_GRID_FIXED_X) ? 0 : pObj->ScrollStateH.v);
00005a  f8b4006c          LDRH     r0,[r4,#0x6c]
00005e  6c21              LDR      r1,[r4,#0x40]
000060  f0100f01          TST      r0,#1
000064  d001              BEQ      |L1.106|
000066  2000              MOVS     r0,#0
000068  e001              B        |L1.110|
                  |L1.106|
00006a  f8d40080          LDR      r0,[r4,#0x80]
                  |L1.110|
00006e  4438              ADD      r0,r0,r7
000070  180d              ADDS     r5,r1,r0
;;;107        while (FirstPosX >= xSpace) FirstPosX -= xSpace;
000072  42bd              CMP      r5,r7
000074  db02              BLT      |L1.124|
                  |L1.118|
000076  1bed              SUBS     r5,r5,r7
000078  42bd              CMP      r5,r7
00007a  dafc              BGE      |L1.118|
                  |L1.124|
;;;108        GUI_SetLineStyle(pObj->LineStyleV);
00007c  f894006e          LDRB     r0,[r4,#0x6e]
000080  f7fffffe          BL       GUI_SetLineStyle
;;;109        for (i = FirstPosX; i < xSize; i += xSpace) {
000084  455d              CMP      r5,r11
000086  da1a              BGE      |L1.190|
                  |L1.136|
;;;110          int x, y0, y1;
;;;111          x  = i + BorderL + EffectSize;
000088  9800              LDR      r0,[sp,#0]
00008a  eb050109          ADD      r1,r5,r9
00008e  4408              ADD      r0,r0,r1
;;;112          y0 = Rect.y0 + BorderT;
000090  f9bd200a          LDRSH    r2,[sp,#0xa]
000094  9908              LDR      r1,[sp,#0x20]
000096  4411              ADD      r1,r1,r2
;;;113          y1 = Rect.y1 - BorderB;
000098  f9bd200e          LDRSH    r2,[sp,#0xe]
00009c  eba20208          SUB      r2,r2,r8
;;;114          if (pObj->LineStyleV != GUI_LS_SOLID) {
0000a0  f894c06e          LDRB     r12,[r4,#0x6e]
0000a4  f1bc0f00          CMP      r12,#0
0000a8  d004              BEQ      |L1.180|
;;;115            GUI_DrawLine(x, y0, x, y1);
0000aa  4613              MOV      r3,r2
0000ac  4602              MOV      r2,r0
0000ae  f7fffffe          BL       GUI_DrawLine
0000b2  e001              B        |L1.184|
                  |L1.180|
;;;116          } else {
;;;117            GUI_DrawVLine(x, y0, y1);
0000b4  f7fffffe          BL       GUI_DrawVLine
                  |L1.184|
0000b8  443d              ADD      r5,r5,r7              ;109
0000ba  455d              CMP      r5,r11                ;109
0000bc  dbe4              BLT      |L1.136|
                  |L1.190|
;;;118          }
;;;119        }
;;;120      }
;;;121      if (ySpace) {
0000be  b356              CBZ      r6,|L1.278|
;;;122        int FirstPosY;
;;;123        FirstPosY = ySpace + pObj->Props.GridOffY - pObj->ScrollStateV.v;
0000c0  6c60              LDR      r0,[r4,#0x44]
0000c2  6f61              LDR      r1,[r4,#0x74]
0000c4  4430              ADD      r0,r0,r6
0000c6  1a45              SUBS     r5,r0,r1
;;;124        while (FirstPosY >= ySpace) FirstPosY -= ySpace;
0000c8  42b5              CMP      r5,r6
0000ca  db02              BLT      |L1.210|
                  |L1.204|
0000cc  1bad              SUBS     r5,r5,r6
0000ce  42b5              CMP      r5,r6
0000d0  dafc              BGE      |L1.204|
                  |L1.210|
;;;125        GUI_SetLineStyle(pObj->LineStyleH);
0000d2  f894006f          LDRB     r0,[r4,#0x6f]
0000d6  f7fffffe          BL       GUI_SetLineStyle
;;;126        for (i = FirstPosY; i < ySize; i += ySpace) {
0000da  4555              CMP      r5,r10
0000dc  da1b              BGE      |L1.278|
                  |L1.222|
;;;127          int y, x0, x1;
;;;128          y  = Rect.y1 - BorderB - i;
0000de  f9bd000e          LDRSH    r0,[sp,#0xe]
0000e2  eba00008          SUB      r0,r0,r8
0000e6  1b40              SUBS     r0,r0,r5
;;;129          x0 = Rect.x0 + BorderL;
0000e8  f9bd1008          LDRSH    r1,[sp,#8]
0000ec  eb010c09          ADD      r12,r1,r9
;;;130          x1 = Rect.x1 - BorderR;
0000f0  f9bd200c          LDRSH    r2,[sp,#0xc]
0000f4  9912              LDR      r1,[sp,#0x48]
0000f6  1a52              SUBS     r2,r2,r1
;;;131          if (pObj->LineStyleH != GUI_LS_SOLID) {
0000f8  f894106f          LDRB     r1,[r4,#0x6f]
0000fc  b129              CBZ      r1,|L1.266|
;;;132            GUI_DrawLine(x0, y, x1, y);
0000fe  4603              MOV      r3,r0
000100  4601              MOV      r1,r0
000102  4660              MOV      r0,r12
000104  f7fffffe          BL       GUI_DrawLine
000108  e002              B        |L1.272|
                  |L1.266|
;;;133          } else {
;;;134            GUI_DrawHLine(y, x0, x1);
00010a  4661              MOV      r1,r12
00010c  f7fffffe          BL       GUI_DrawHLine
                  |L1.272|
000110  4435              ADD      r5,r5,r6              ;126
000112  4555              CMP      r5,r10                ;126
000114  dbe3              BLT      |L1.222|
                  |L1.278|
;;;135          }
;;;136        }
;;;137      }
;;;138      GUI_SetLineStyle(LineStyleOld);
000116  9801              LDR      r0,[sp,#4]
000118  f7fffffe          BL       GUI_SetLineStyle
;;;139    }
00011c  b009              ADD      sp,sp,#0x24
00011e  e8bd8ff0          POP      {r4-r11,pc}
;;;140    
                          ENDP

                  _DrawBorder PROC
;;;144    */
;;;145    static void _DrawBorder(GRAPH_OBJ * pObj, GRAPH_Handle hObj, unsigned BorderL, unsigned BorderT, unsigned BorderR, unsigned BorderB, GUI_RECT * pRectInvalid) {
000122  e92d4fff          PUSH     {r0-r11,lr}
000126  b087              SUB      sp,sp,#0x1c
000128  4608              MOV      r0,r1
00012a  f8dd8058          LDR      r8,[sp,#0x58]
00012e  9f14              LDR      r7,[sp,#0x50]
000130  9c15              LDR      r4,[sp,#0x54]
000132  4691              MOV      r9,r2
000134  461d              MOV      r5,r3
;;;146      if (BorderL || BorderT || BorderR || BorderB) {
000136  ea490105          ORR      r1,r9,r5
00013a  4339              ORRS     r1,r1,r7
00013c  4321              ORRS     r1,r1,r4
00013e  d07e              BEQ      |L1.574|
;;;147        int OrgX, OrgY, x0, y0, x1, y1, x0_Clear, y0_Clear, x1_Clear, y1_Clear;
;;;148        GUI_RECT Rect;
;;;149        int EffectSize;
;;;150        EffectSize = pObj->Widget.pEffect->EffectSize;
000140  9a07              LDR      r2,[sp,#0x1c]
000142  6a11              LDR      r1,[r2,#0x20]
000144  694e              LDR      r6,[r1,#0x14]
;;;151        WM_GetInsideRectExScrollbar(hObj, &Rect);
000146  4669              MOV      r1,sp
000148  f7fffffe          BL       WM_GetInsideRectExScrollbar
;;;152        OrgX = WM_GetOrgX();
00014c  f7fffffe          BL       WM_GetOrgX
000150  9005              STR      r0,[sp,#0x14]
;;;153        OrgY = WM_GetOrgY();
000152  f7fffffe          BL       WM_GetOrgY
000156  9004              STR      r0,[sp,#0x10]
;;;154        x0 = Rect.x0 + BorderL;
000158  f9bd0000          LDRSH    r0,[sp,#0]
00015c  eb000a09          ADD      r10,r0,r9
;;;155        y0 = Rect.y0 + BorderT;
000160  f9bd0002          LDRSH    r0,[sp,#2]
000164  eb000b05          ADD      r11,r0,r5
;;;156        x1 = Rect.x1 - BorderR;
000168  f9bd0004          LDRSH    r0,[sp,#4]
00016c  1bc0              SUBS     r0,r0,r7
00016e  9003              STR      r0,[sp,#0xc]
;;;157        y1 = Rect.y1 - BorderB;
000170  f9bd0006          LDRSH    r0,[sp,#6]
000174  1b00              SUBS     r0,r0,r4
000176  9002              STR      r0,[sp,#8]
;;;158        GUI_SetBkColor(pObj->Props.aColor[GRAPH_CI_BORDER]);
000178  9807              LDR      r0,[sp,#0x1c]
00017a  6ac0              LDR      r0,[r0,#0x2c]
00017c  f7fffffe          BL       GUI_SetBkColor
;;;159        GUI_SetColor(pObj->Props.aColor[GRAPH_CI_FRAME]);
000180  9807              LDR      r0,[sp,#0x1c]
000182  6b00              LDR      r0,[r0,#0x30]
000184  f7fffffe          BL       GUI_SetColor
;;;160        if (BorderL) {
000188  f1b90f00          CMP      r9,#0
00018c  d019              BEQ      |L1.450|
;;;161          x1_Clear = BorderL - 1 + EffectSize;
00018e  eb090006          ADD      r0,r9,r6
000192  1e42              SUBS     r2,r0,#1
;;;162          if ((pRectInvalid->x0 - OrgX) <= x1_Clear) {
000194  f9b81000          LDRSH    r1,[r8,#0]
000198  9805              LDR      r0,[sp,#0x14]
00019a  1a08              SUBS     r0,r1,r0
00019c  4290              CMP      r0,r2
00019e  dc10              BGT      |L1.450|
;;;163            x0_Clear = Rect.x0;
0001a0  f9bd0000          LDRSH    r0,[sp,#0]
;;;164            y0_Clear = BorderT + EffectSize;
0001a4  19a9              ADDS     r1,r5,r6
;;;165            y1_Clear = Rect.y1 - BorderB + 1;
0001a6  f9bd3006          LDRSH    r3,[sp,#6]
0001aa  1b1b              SUBS     r3,r3,r4
0001ac  1c5b              ADDS     r3,r3,#1
;;;166            GUI_ClearRect(x0_Clear, y0_Clear, x1_Clear, y1_Clear);
0001ae  f7fffffe          BL       GUI_ClearRect
;;;167            GUI_DrawVLine(x0 - 1, y0 - 1, y1 + 1);
0001b2  9802              LDR      r0,[sp,#8]
0001b4  f1ab0101          SUB      r1,r11,#1
0001b8  1c42              ADDS     r2,r0,#1
0001ba  f1aa0001          SUB      r0,r10,#1
0001be  f7fffffe          BL       GUI_DrawVLine
                  |L1.450|
;;;168          }
;;;169        }
;;;170        if (BorderT) {
0001c2  b1bd              CBZ      r5,|L1.500|
;;;171          y1_Clear = BorderT - 1 + EffectSize;
0001c4  19a8              ADDS     r0,r5,r6
0001c6  1e43              SUBS     r3,r0,#1
;;;172          if ((pRectInvalid->y0 - OrgY) <= y1_Clear) {
0001c8  f9b81002          LDRSH    r1,[r8,#2]
0001cc  9804              LDR      r0,[sp,#0x10]
0001ce  1a08              SUBS     r0,r1,r0
0001d0  4298              CMP      r0,r3
0001d2  dc0f              BGT      |L1.500|
;;;173            x0_Clear = Rect.x0;
0001d4  f9bd0000          LDRSH    r0,[sp,#0]
;;;174            y0_Clear = Rect.y0;
0001d8  f9bd1002          LDRSH    r1,[sp,#2]
;;;175            x1_Clear = Rect.x1;
0001dc  f9bd2004          LDRSH    r2,[sp,#4]
;;;176            GUI_ClearRect(x0_Clear, y0_Clear, x1_Clear, y1_Clear);
0001e0  f7fffffe          BL       GUI_ClearRect
;;;177            GUI_DrawHLine(y0 - 1, x0 - 1, x1 + 1);
0001e4  9803              LDR      r0,[sp,#0xc]
0001e6  f1aa0101          SUB      r1,r10,#1
0001ea  1c42              ADDS     r2,r0,#1
0001ec  f1ab0001          SUB      r0,r11,#1
0001f0  f7fffffe          BL       GUI_DrawHLine
                  |L1.500|
;;;178          }
;;;179        }
;;;180        if (BorderR) {
0001f4  b1c7              CBZ      r7,|L1.552|
;;;181          x0_Clear = Rect.x1 - BorderR + 1;
0001f6  f9bd2004          LDRSH    r2,[sp,#4]
0001fa  1bd0              SUBS     r0,r2,r7
0001fc  1c40              ADDS     r0,r0,#1
;;;182          if ((pRectInvalid->x1 - OrgX) >= x0_Clear) {
0001fe  f9b83004          LDRSH    r3,[r8,#4]
000202  9905              LDR      r1,[sp,#0x14]
000204  1a59              SUBS     r1,r3,r1
000206  4281              CMP      r1,r0
000208  db0e              BLT      |L1.552|
;;;183            y0_Clear = BorderT + EffectSize;
00020a  19a9              ADDS     r1,r5,r6
;;;184            x1_Clear = Rect.x1;
;;;185            y1_Clear = Rect.y1 - BorderB + 1;
00020c  f9bd3006          LDRSH    r3,[sp,#6]
000210  1b1b              SUBS     r3,r3,r4
000212  1c5b              ADDS     r3,r3,#1
;;;186            GUI_ClearRect(x0_Clear, y0_Clear, x1_Clear, y1_Clear);
000214  f7fffffe          BL       GUI_ClearRect
;;;187            GUI_DrawVLine(x1 + 1, y0 - 1, y1 + 1);
000218  9802              LDR      r0,[sp,#8]
00021a  f1ab0101          SUB      r1,r11,#1
00021e  1c42              ADDS     r2,r0,#1
000220  9803              LDR      r0,[sp,#0xc]
000222  1c40              ADDS     r0,r0,#1
000224  f7fffffe          BL       GUI_DrawVLine
                  |L1.552|
;;;188          }
;;;189        }
;;;190        if (BorderB) {
000228  2c00              CMP      r4,#0
00022a  d019              BEQ      |L1.608|
;;;191          y0_Clear = Rect.y1 - BorderB + 1;
00022c  f9bd3006          LDRSH    r3,[sp,#6]
000230  1b18              SUBS     r0,r3,r4
000232  1c41              ADDS     r1,r0,#1
;;;192          if ((pRectInvalid->y1 - OrgY) >= y0_Clear) {
000234  f9b82006          LDRSH    r2,[r8,#6]
000238  9804              LDR      r0,[sp,#0x10]
00023a  1a10              SUBS     r0,r2,r0
00023c  e000              B        |L1.576|
                  |L1.574|
00023e  e00f              B        |L1.608|
                  |L1.576|
000240  4288              CMP      r0,r1
000242  db0d              BLT      |L1.608|
;;;193            x0_Clear = Rect.x0;
000244  f9bd0000          LDRSH    r0,[sp,#0]
;;;194            x1_Clear = Rect.x1;
000248  f9bd2004          LDRSH    r2,[sp,#4]
;;;195            y1_Clear = Rect.y1;
;;;196            GUI_ClearRect(x0_Clear, y0_Clear, x1_Clear, y1_Clear);
00024c  f7fffffe          BL       GUI_ClearRect
;;;197            GUI_DrawHLine(y1 + 1, x0 - 1, x1 + 1);
000250  9803              LDR      r0,[sp,#0xc]
000252  f1aa0101          SUB      r1,r10,#1
000256  1c42              ADDS     r2,r0,#1
000258  9802              LDR      r0,[sp,#8]
00025a  1c40              ADDS     r0,r0,#1
00025c  f7fffffe          BL       GUI_DrawHLine
                  |L1.608|
;;;198          }
;;;199        }
;;;200      }
;;;201    }
000260  b00b              ADD      sp,sp,#0x2c
000262  e8bd8ff0          POP      {r4-r11,pc}
;;;202    
                          ENDP

                  _GetParams PROC
;;;206    */
;;;207    static void _GetParams(GRAPH_OBJ * pObj, unsigned * pBorderL, unsigned * pBorderT, unsigned * pBorderR, unsigned * pBorderB, unsigned * pEffectSize) {
000266  b430              PUSH     {r4,r5}
000268  f8ddc008          LDR      r12,[sp,#8]
00026c  9c03              LDR      r4,[sp,#0xc]
;;;208      *pBorderL    = pObj->Props.BorderL;
00026e  6c85              LDR      r5,[r0,#0x48]
000270  600d              STR      r5,[r1,#0]
;;;209      *pBorderT    = pObj->Props.BorderT;
000272  6cc1              LDR      r1,[r0,#0x4c]
000274  6011              STR      r1,[r2,#0]
;;;210      *pBorderR    = pObj->Props.BorderR;
000276  6d01              LDR      r1,[r0,#0x50]
000278  6019              STR      r1,[r3,#0]
;;;211      *pBorderB    = pObj->Props.BorderB;
00027a  6d41              LDR      r1,[r0,#0x54]
00027c  f8cc1000          STR      r1,[r12,#0]
;;;212      *pEffectSize = pObj->Widget.pEffect->EffectSize;
000280  6a00              LDR      r0,[r0,#0x20]
000282  6940              LDR      r0,[r0,#0x14]
000284  6020              STR      r0,[r4,#0]
;;;213    }
000286  bc30              POP      {r4,r5}
000288  4770              BX       lr
;;;214    
                          ENDP

                  _OnPaint PROC
;;;218    */
;;;219    static void _OnPaint(GRAPH_OBJ * pObj, GRAPH_Handle hObj, GUI_RECT * pRectInvalid) {
00028a  e92d43f0          PUSH     {r4-r9,lr}
00028e  b08d              SUB      sp,sp,#0x34
000290  4604              MOV      r4,r0
000292  460f              MOV      r7,r1
000294  4616              MOV      r6,r2
;;;220      unsigned BorderL, BorderT, BorderR, BorderB, EffectSize, i, NumItems;
;;;221      GUI_RECT RectClient, Rect;
;;;222      _GetParams(pObj, &BorderL, &BorderT, &BorderR, &BorderB, &EffectSize);
000296  ab08              ADD      r3,sp,#0x20
000298  aa09              ADD      r2,sp,#0x24
00029a  9301              STR      r3,[sp,#4]
00029c  9200              STR      r2,[sp,#0]
00029e  ab0a              ADD      r3,sp,#0x28
0002a0  aa0b              ADD      r2,sp,#0x2c
0002a2  a90c              ADD      r1,sp,#0x30
0002a4  4620              MOV      r0,r4
0002a6  f7fffffe          BL       _GetParams
;;;223      WM_GetClientRect(&RectClient);
0002aa  a806              ADD      r0,sp,#0x18
0002ac  f7fffffe          BL       WM_GetClientRect
;;;224      WIDGET__EFFECT_DrawDownRect(&pObj->Widget, &RectClient);
0002b0  a906              ADD      r1,sp,#0x18
0002b2  4620              MOV      r0,r4
0002b4  f7fffffe          BL       WIDGET__EFFECT_DrawDownRect
;;;225      Rect = RectClient;
0002b8  9907              LDR      r1,[sp,#0x1c]
0002ba  9806              LDR      r0,[sp,#0x18]
0002bc  9105              STR      r1,[sp,#0x14]
0002be  9004              STR      r0,[sp,#0x10]
;;;226      Rect.y0 += BorderT + EffectSize;
0002c0  9a0b              LDR      r2,[sp,#0x2c]
0002c2  9808              LDR      r0,[sp,#0x20]
0002c4  f8bd1012          LDRH     r1,[sp,#0x12]
0002c8  4402              ADD      r2,r2,r0
0002ca  4411              ADD      r1,r1,r2
0002cc  f8ad1012          STRH     r1,[sp,#0x12]
;;;227      Rect.y1 -= BorderB + EffectSize;
0002d0  9a09              LDR      r2,[sp,#0x24]
0002d2  f8bd1016          LDRH     r1,[sp,#0x16]
0002d6  4402              ADD      r2,r2,r0
0002d8  1a89              SUBS     r1,r1,r2
0002da  f8ad1016          STRH     r1,[sp,#0x16]
;;;228      Rect.x0 += BorderL + EffectSize;
0002de  9a0c              LDR      r2,[sp,#0x30]
0002e0  f8bd1010          LDRH     r1,[sp,#0x10]
0002e4  4402              ADD      r2,r2,r0
0002e6  4411              ADD      r1,r1,r2
0002e8  f8ad1010          STRH     r1,[sp,#0x10]
;;;229      Rect.x1 -= BorderR + EffectSize;
0002ec  9a0a              LDR      r2,[sp,#0x28]
0002ee  f8bd1014          LDRH     r1,[sp,#0x14]
0002f2  4410              ADD      r0,r0,r2
0002f4  1a08              SUBS     r0,r1,r0
0002f6  f8ad0014          STRH     r0,[sp,#0x14]
;;;230      WM_SetUserClipRect(&Rect);
0002fa  a804              ADD      r0,sp,#0x10
0002fc  f7fffffe          BL       WM_SetUserClipRect
;;;231      GUI_SetBkColor(pObj->Props.aColor[GRAPH_CI_BK]);
000300  6aa0              LDR      r0,[r4,#0x28]
000302  f7fffffe          BL       GUI_SetBkColor
;;;232      GUI_Clear();
000306  f7fffffe          BL       GUI_Clear
;;;233      if (pObj->pUserDraw) {
00030a  f8d42088          LDR      r2,[r4,#0x88]
00030e  b112              CBZ      r2,|L1.790|
;;;234        pObj->pUserDraw(hObj, GRAPH_DRAW_FIRST);
000310  2100              MOVS     r1,#0
000312  4638              MOV      r0,r7
000314  4790              BLX      r2
                  |L1.790|
;;;235      }
;;;236      if (pObj->ShowGrid) {
000316  f8940060          LDRB     r0,[r4,#0x60]
00031a  b148              CBZ      r0,|L1.816|
;;;237        _DrawGrid(pObj, hObj, BorderL, BorderT, BorderR, BorderB);
00031c  9a09              LDR      r2,[sp,#0x24]
00031e  9b0a              LDR      r3,[sp,#0x28]
000320  9201              STR      r2,[sp,#4]
000322  9300              STR      r3,[sp,#0]
000324  4639              MOV      r1,r7
000326  4620              MOV      r0,r4
000328  9b0b              LDR      r3,[sp,#0x2c]
00032a  9a0c              LDR      r2,[sp,#0x30]
00032c  f7fffffe          BL       _DrawGrid
                  |L1.816|
;;;238      }
;;;239      NumItems = pObj->GraphArray.NumItems;
000330  f8b48058          LDRH     r8,[r4,#0x58]
;;;240      for (i = 0; i < NumItems; i++) {
000334  2500              MOVS     r5,#0
000336  f1b80f00          CMP      r8,#0
00033a  d914              BLS      |L1.870|
                  |L1.828|
;;;241        WM_HMEM hMem;
;;;242        WM_HMEM * phMem;
;;;243        hMem  = GUI_ARRAY_GethItem(&pObj->GraphArray, i); /* Handle of array item */
00033c  4629              MOV      r1,r5
00033e  f1040058          ADD      r0,r4,#0x58
000342  f7fffffe          BL       GUI_ARRAY_GethItem
;;;244        phMem = (WM_HMEM *)GUI_ALLOC_h2p(hMem);                      /* Pointer to handle */
000346  f7fffffe          BL       GUI_ALLOC_h2p
;;;245        if (phMem) {
00034a  b148              CBZ      r0,|L1.864|
;;;246          GRAPH_DATA_Handle hDataObj;
;;;247          GRAPH_DATA_OBJ *  pDataObj;
;;;248          hDataObj = *(WM_HMEM *)phMem;
00034c  f9b09000          LDRSH    r9,[r0,#0]
;;;249          pDataObj = (GRAPH_DATA_OBJ *)GUI_ALLOC_h2p(hDataObj);
000350  4648              MOV      r0,r9
000352  f7fffffe          BL       GUI_ALLOC_h2p
;;;250          if (pDataObj) {
000356  b118              CBZ      r0,|L1.864|
;;;251            pDataObj->PaintObj.pfOnPaint(hDataObj, pRectInvalid);
000358  6802              LDR      r2,[r0,#0]
00035a  4631              MOV      r1,r6
00035c  4648              MOV      r0,r9
00035e  4790              BLX      r2
                  |L1.864|
000360  1c6d              ADDS     r5,r5,#1              ;240
000362  4545              CMP      r5,r8                 ;240
000364  d3ea              BCC      |L1.828|
                  |L1.870|
;;;252          }
;;;253        }
;;;254      }
;;;255      GUI__ReduceRect(&Rect, &RectClient, EffectSize);
000366  a906              ADD      r1,sp,#0x18
000368  a804              ADD      r0,sp,#0x10
00036a  9a08              LDR      r2,[sp,#0x20]
00036c  f7fffffe          BL       GUI__ReduceRect
;;;256      WM_SetUserClipRect(&Rect);
000370  a804              ADD      r0,sp,#0x10
000372  f7fffffe          BL       WM_SetUserClipRect
;;;257      _DrawBorder(pObj, hObj, BorderL, BorderT, BorderR, BorderB, pRectInvalid);
000376  9909              LDR      r1,[sp,#0x24]
000378  9a0a              LDR      r2,[sp,#0x28]
00037a  9101              STR      r1,[sp,#4]
00037c  9602              STR      r6,[sp,#8]
00037e  9200              STR      r2,[sp,#0]
000380  4639              MOV      r1,r7
000382  4620              MOV      r0,r4
000384  9b0b              LDR      r3,[sp,#0x2c]
000386  9a0c              LDR      r2,[sp,#0x30]
000388  f7fffffe          BL       _DrawBorder
;;;258      NumItems = pObj->ScaleArray.NumItems;
00038c  f8b4805c          LDRH     r8,[r4,#0x5c]
;;;259      for (i = 0; i < NumItems; i++) {
000390  2500              MOVS     r5,#0
000392  f1b80f00          CMP      r8,#0
000396  d914              BLS      |L1.962|
                  |L1.920|
;;;260        WM_HMEM hMem;
;;;261        WM_HMEM * phMem;
;;;262        hMem  = GUI_ARRAY_GethItem(&pObj->ScaleArray, i); /* Handle of array item */
000398  4629              MOV      r1,r5
00039a  f104005c          ADD      r0,r4,#0x5c
00039e  f7fffffe          BL       GUI_ARRAY_GethItem
;;;263        phMem = (WM_HMEM *)GUI_ALLOC_h2p(hMem);                      /* Pointer to handle */
0003a2  f7fffffe          BL       GUI_ALLOC_h2p
;;;264        if (phMem) {
0003a6  b148              CBZ      r0,|L1.956|
;;;265          GRAPH_SCALE_Handle hScaleObj;
;;;266          GRAPH_SCALE_OBJ *  pScaleObj;
;;;267          hScaleObj = *(WM_HMEM *)phMem;
0003a8  f9b09000          LDRSH    r9,[r0,#0]
;;;268          pScaleObj = (GRAPH_SCALE_OBJ *)GUI_ALLOC_h2p(hScaleObj);
0003ac  4648              MOV      r0,r9
0003ae  f7fffffe          BL       GUI_ALLOC_h2p
;;;269          if (pScaleObj) {
0003b2  b118              CBZ      r0,|L1.956|
;;;270            pScaleObj->PaintObj.pfOnPaint(hScaleObj, pRectInvalid);
0003b4  6802              LDR      r2,[r0,#0]
0003b6  4631              MOV      r1,r6
0003b8  4648              MOV      r0,r9
0003ba  4790              BLX      r2
                  |L1.956|
0003bc  1c6d              ADDS     r5,r5,#1              ;259
0003be  4545              CMP      r5,r8                 ;259
0003c0  d3ea              BCC      |L1.920|
                  |L1.962|
;;;271          }
;;;272        }
;;;273      }
;;;274      WM_SetUserClipRect(0);
0003c2  2000              MOVS     r0,#0
0003c4  f7fffffe          BL       WM_SetUserClipRect
;;;275      if (pObj->pUserDraw) {
0003c8  f8d42088          LDR      r2,[r4,#0x88]
0003cc  2a00              CMP      r2,#0
0003ce  d002              BEQ      |L1.982|
;;;276        pObj->pUserDraw(hObj, GRAPH_DRAW_LAST);
0003d0  2101              MOVS     r1,#1
0003d2  4638              MOV      r0,r7
0003d4  4790              BLX      r2
                  |L1.982|
;;;277      }
;;;278    }
0003d6  b00d              ADD      sp,sp,#0x34
0003d8  e8bd83f0          POP      {r4-r9,pc}
;;;279    
                          ENDP

                  _OnDelete PROC
;;;283    */
;;;284    static void _OnDelete(GRAPH_OBJ * pObj) {
0003dc  e92d41f0          PUSH     {r4-r8,lr}
0003e0  4604              MOV      r4,r0
;;;285      int i, NumItems;
;;;286      NumItems = pObj->GraphArray.NumItems;
0003e2  f8b46058          LDRH     r6,[r4,#0x58]
;;;287      for (i = 0; i < NumItems; i++) {
0003e6  2500              MOVS     r5,#0
0003e8  2e00              CMP      r6,#0
0003ea  dd16              BLE      |L1.1050|
                  |L1.1004|
;;;288        WM_HMEM hMem;
;;;289        WM_HMEM * phMem;
;;;290        hMem  = GUI_ARRAY_GethItem(&pObj->GraphArray, i); /* Handle of array item */
0003ec  4629              MOV      r1,r5
0003ee  f1040058          ADD      r0,r4,#0x58
0003f2  f7fffffe          BL       GUI_ARRAY_GethItem
;;;291        phMem = (WM_HMEM *)GUI_ALLOC_h2p(hMem);                      /* Pointer to handle */
0003f6  f7fffffe          BL       GUI_ALLOC_h2p
;;;292        if (phMem) {
0003fa  b158              CBZ      r0,|L1.1044|
;;;293          GRAPH_DATA_Handle hDataObj;
;;;294          GRAPH_DATA_OBJ *  pDataObj;
;;;295          hDataObj = *(WM_HMEM *)phMem;
0003fc  f9b07000          LDRSH    r7,[r0,#0]
;;;296          pDataObj = (GRAPH_DATA_OBJ *)GUI_ALLOC_h2p(hDataObj);
000400  4638              MOV      r0,r7
000402  f7fffffe          BL       GUI_ALLOC_h2p
;;;297          if (pDataObj) {
000406  b110              CBZ      r0,|L1.1038|
;;;298            pDataObj->PaintObj.pfOnDelete(hDataObj);
000408  6841              LDR      r1,[r0,#4]
00040a  4638              MOV      r0,r7
00040c  4788              BLX      r1
                  |L1.1038|
;;;299          }
;;;300          GUI_ALLOC_Free(hDataObj);
00040e  4638              MOV      r0,r7
000410  f7fffffe          BL       GUI_ALLOC_Free
                  |L1.1044|
000414  1c6d              ADDS     r5,r5,#1              ;287
000416  42b5              CMP      r5,r6                 ;287
000418  dbe8              BLT      |L1.1004|
                  |L1.1050|
;;;301        }
;;;302      }
;;;303      NumItems = pObj->ScaleArray.NumItems;
00041a  f8b4605c          LDRH     r6,[r4,#0x5c]
;;;304      for (i = 0; i < NumItems; i++) {
00041e  2500              MOVS     r5,#0
000420  2e00              CMP      r6,#0
000422  dd0e              BLE      |L1.1090|
                  |L1.1060|
;;;305        WM_HMEM hMem;
;;;306        WM_HMEM * phMem;
;;;307        hMem  = GUI_ARRAY_GethItem(&pObj->ScaleArray, i); /* Handle of array item */
000424  4629              MOV      r1,r5
000426  f104005c          ADD      r0,r4,#0x5c
00042a  f7fffffe          BL       GUI_ARRAY_GethItem
;;;308        phMem = (WM_HMEM *)GUI_ALLOC_h2p(hMem);                      /* Pointer to handle */
00042e  f7fffffe          BL       GUI_ALLOC_h2p
;;;309        if (phMem) {
000432  b118              CBZ      r0,|L1.1084|
;;;310          GRAPH_SCALE_Handle hScaleObj;
;;;311          hScaleObj = *(WM_HMEM *)phMem;
000434  f9b00000          LDRSH    r0,[r0,#0]
;;;312          GUI_ALLOC_Free(hScaleObj);
000438  f7fffffe          BL       GUI_ALLOC_Free
                  |L1.1084|
00043c  1c6d              ADDS     r5,r5,#1              ;304
00043e  42b5              CMP      r5,r6                 ;304
000440  dbf0              BLT      |L1.1060|
                  |L1.1090|
;;;313        }
;;;314      }
;;;315      GUI_ARRAY_Delete(&pObj->GraphArray);
000442  f1040058          ADD      r0,r4,#0x58
000446  f7fffffe          BL       GUI_ARRAY_Delete
;;;316      GUI_ARRAY_Delete(&pObj->ScaleArray);
00044a  f104005c          ADD      r0,r4,#0x5c
00044e  e8bd41f0          POP      {r4-r8,lr}
000452  f7ffbffe          B.W      GUI_ARRAY_Delete
;;;317    }
;;;318    
                          ENDP

                  _InvalidateGraph PROC
;;;322    */
;;;323    static void _InvalidateGraph(GRAPH_Handle hObj) {
000456  b510              PUSH     {r4,lr}
000458  b08a              SUB      sp,sp,#0x28
00045a  4604              MOV      r4,r0
;;;324      unsigned BorderL, BorderT, BorderR, BorderB, EffectSize;
;;;325      GUI_RECT Rect;
;;;326      GRAPH_OBJ * pObj;
;;;327      pObj = GRAPH_H2P(hObj);
00045c  4620              MOV      r0,r4
00045e  f7fffffe          BL       GUI_ALLOC_h2p
;;;328      _GetParams(pObj, &BorderL, &BorderT, &BorderR, &BorderB, &EffectSize);
000462  ab04              ADD      r3,sp,#0x10
000464  aa05              ADD      r2,sp,#0x14
000466  9301              STR      r3,[sp,#4]
000468  9200              STR      r2,[sp,#0]
00046a  ab06              ADD      r3,sp,#0x18
00046c  aa07              ADD      r2,sp,#0x1c
00046e  a908              ADD      r1,sp,#0x20
000470  f7fffffe          BL       _GetParams
;;;329      WM_GetInsideRectExScrollbar(hObj, &Rect);
000474  a902              ADD      r1,sp,#8
000476  4620              MOV      r0,r4
000478  f7fffffe          BL       WM_GetInsideRectExScrollbar
;;;330      Rect.x0 += BorderL;
00047c  f8bd0008          LDRH     r0,[sp,#8]
000480  9908              LDR      r1,[sp,#0x20]
000482  4408              ADD      r0,r0,r1
000484  f8ad0008          STRH     r0,[sp,#8]
;;;331      Rect.y0 += BorderT;
000488  f8bd000a          LDRH     r0,[sp,#0xa]
00048c  9907              LDR      r1,[sp,#0x1c]
00048e  4408              ADD      r0,r0,r1
000490  f8ad000a          STRH     r0,[sp,#0xa]
;;;332      Rect.x1 -= BorderR;
000494  f8bd000c          LDRH     r0,[sp,#0xc]
000498  9906              LDR      r1,[sp,#0x18]
00049a  1a40              SUBS     r0,r0,r1
00049c  f8ad000c          STRH     r0,[sp,#0xc]
;;;333      Rect.y1 -= BorderB;
0004a0  f8bd000e          LDRH     r0,[sp,#0xe]
0004a4  9905              LDR      r1,[sp,#0x14]
0004a6  1a40              SUBS     r0,r0,r1
0004a8  f8ad000e          STRH     r0,[sp,#0xe]
;;;334      WM_InvalidateRect(hObj, &Rect);
0004ac  a902              ADD      r1,sp,#8
0004ae  4620              MOV      r0,r4
0004b0  f7fffffe          BL       WM_InvalidateRect
;;;335    }
0004b4  b00a              ADD      sp,sp,#0x28
0004b6  bd10              POP      {r4,pc}
;;;336    
                          ENDP

                  _ManageScrollBars PROC
;;;340    */
;;;341    static void _ManageScrollBars(GRAPH_OBJ * pObj, GRAPH_Handle hObj) {
0004b8  b570              PUSH     {r4-r6,lr}
0004ba  b08a              SUB      sp,sp,#0x28
0004bc  4604              MOV      r4,r0
0004be  460e              MOV      r6,r1
;;;342      int IsRequired, PageSize;
;;;343      GUI_RECT Rect;
;;;344      unsigned BorderL, BorderT, BorderR, BorderB, EffectSize;
;;;345      WM_GetInsideRectExScrollbar(hObj, &Rect);
0004c0  a908              ADD      r1,sp,#0x20
0004c2  4630              MOV      r0,r6
0004c4  f7fffffe          BL       WM_GetInsideRectExScrollbar
;;;346      _GetParams(pObj, &BorderL, &BorderT, &BorderR, &BorderB, &EffectSize);
0004c8  ab03              ADD      r3,sp,#0xc
0004ca  aa04              ADD      r2,sp,#0x10
0004cc  9301              STR      r3,[sp,#4]
0004ce  9200              STR      r2,[sp,#0]
0004d0  ab05              ADD      r3,sp,#0x14
0004d2  aa06              ADD      r2,sp,#0x18
0004d4  a907              ADD      r1,sp,#0x1c
0004d6  4620              MOV      r0,r4
0004d8  f7fffffe          BL       _GetParams
;;;347      PageSize   = Rect.y1 - Rect.y0 - BorderT - BorderB;
0004dc  f9bd0026          LDRSH    r0,[sp,#0x26]
0004e0  f9bd1022          LDRSH    r1,[sp,#0x22]
0004e4  1a40              SUBS     r0,r0,r1
0004e6  9906              LDR      r1,[sp,#0x18]
0004e8  1a40              SUBS     r0,r0,r1
0004ea  9904              LDR      r1,[sp,#0x10]
0004ec  1a45              SUBS     r5,r0,r1
;;;348      IsRequired = ((int)pObj->RangeY > PageSize) ? 1 : 0;
0004ee  6ea0              LDR      r0,[r4,#0x68]
0004f0  42a8              CMP      r0,r5
0004f2  dd01              BLE      |L1.1272|
0004f4  2101              MOVS     r1,#1
0004f6  e000              B        |L1.1274|
                  |L1.1272|
0004f8  2100              MOVS     r1,#0
                  |L1.1274|
;;;349      WM_SetScrollbarV(hObj, IsRequired);
0004fa  4630              MOV      r0,r6
0004fc  f7fffffe          BL       WM_SetScrollbarV
;;;350      pObj->ScrollStateV.NumItems = pObj->RangeY;
000500  6ea0              LDR      r0,[r4,#0x68]
000502  6720              STR      r0,[r4,#0x70]
;;;351      pObj->ScrollStateV.PageSize = PageSize;
000504  67a5              STR      r5,[r4,#0x78]
;;;352      PageSize   = Rect.x1 - Rect.x0 - BorderL - BorderR;
000506  f9bd0024          LDRSH    r0,[sp,#0x24]
00050a  f9bd1020          LDRSH    r1,[sp,#0x20]
00050e  1a40              SUBS     r0,r0,r1
000510  9907              LDR      r1,[sp,#0x1c]
000512  1a40              SUBS     r0,r0,r1
000514  9905              LDR      r1,[sp,#0x14]
000516  1a45              SUBS     r5,r0,r1
;;;353      IsRequired = ((int)pObj->RangeX > PageSize) ? 1 : 0;
000518  6e60              LDR      r0,[r4,#0x64]
00051a  42a8              CMP      r0,r5
00051c  dd01              BLE      |L1.1314|
00051e  2101              MOVS     r1,#1
000520  e000              B        |L1.1316|
                  |L1.1314|
000522  2100              MOVS     r1,#0
                  |L1.1316|
;;;354      WM_SetScrollbarH(hObj, IsRequired);
000524  4630              MOV      r0,r6
000526  f7fffffe          BL       WM_SetScrollbarH
;;;355      pObj->ScrollStateH.NumItems = pObj->RangeX;
00052a  6e60              LDR      r0,[r4,#0x64]
00052c  67e0              STR      r0,[r4,#0x7c]
;;;356      pObj->ScrollStateH.PageSize = PageSize;
00052e  f8c45084          STR      r5,[r4,#0x84]
;;;357      WM_CheckScrollBounds(&pObj->ScrollStateV);
000532  f1040070          ADD      r0,r4,#0x70
000536  f7fffffe          BL       WM_CheckScrollBounds
;;;358      WM_CheckScrollBounds(&pObj->ScrollStateH);
00053a  f104007c          ADD      r0,r4,#0x7c
00053e  f7fffffe          BL       WM_CheckScrollBounds
;;;359      WIDGET__SetScrollState(hObj, &pObj->ScrollStateV, &pObj->ScrollStateH);
000542  f104027c          ADD      r2,r4,#0x7c
000546  f1040170          ADD      r1,r4,#0x70
00054a  4630              MOV      r0,r6
00054c  f7fffffe          BL       WIDGET__SetScrollState
;;;360    }
000550  b00a              ADD      sp,sp,#0x28
000552  bd70              POP      {r4-r6,pc}
;;;361    
                          ENDP

                  _SetGridOffY PROC
;;;365    */
;;;366    static unsigned _SetGridOffY(GRAPH_OBJ * pObj, GRAPH_Handle hObj, unsigned Value) {
000554  b510              PUSH     {r4,lr}
;;;367      unsigned OldValue = 0;
000556  2400              MOVS     r4,#0
;;;368      if (pObj) {
000558  b130              CBZ      r0,|L1.1384|
;;;369        OldValue = pObj->Props.GridOffY;
00055a  6c44              LDR      r4,[r0,#0x44]
;;;370        if (pObj->Props.GridOffY != Value) {
00055c  4294              CMP      r4,r2
00055e  d003              BEQ      |L1.1384|
;;;371          pObj->Props.GridOffY = Value;
000560  6442              STR      r2,[r0,#0x44]
;;;372          _InvalidateGraph(hObj);
000562  4608              MOV      r0,r1
000564  f7fffffe          BL       _InvalidateGraph
                  |L1.1384|
;;;373        }
;;;374      }
;;;375      return OldValue;
000568  4620              MOV      r0,r4
;;;376    }
00056a  bd10              POP      {r4,pc}
;;;377    
                          ENDP

                  _OnScrollValueChanged PROC
;;;381    */
;;;382    static void _OnScrollValueChanged(GRAPH_OBJ * pObj, GRAPH_Handle hObj, WM_HWIN hScroll) {
00056c  e92d41f0          PUSH     {r4-r8,lr}
000570  4604              MOV      r4,r0
000572  460e              MOV      r6,r1
000574  4617              MOV      r7,r2
;;;383      int Value, Id;
;;;384      Value = SCROLLBAR_GetValue(hScroll);
000576  4638              MOV      r0,r7
000578  f7fffffe          BL       SCROLLBAR_GetValue
00057c  4605              MOV      r5,r0
;;;385      Id = WM_GetId(hScroll);
00057e  4638              MOV      r0,r7
000580  f7fffffe          BL       WM_GetId
;;;386      if (Id == GUI_ID_VSCROLL) {
000584  28fe              CMP      r0,#0xfe
000586  d006              BEQ      |L1.1430|
;;;387        pObj->ScrollStateV.v = Value;
;;;388      } else {
;;;389        pObj->ScrollStateH.v = Value;
000588  f8c45080          STR      r5,[r4,#0x80]
                  |L1.1420|
;;;390      }
;;;391      WM_InvalidateWindow(hObj);
00058c  4630              MOV      r0,r6
00058e  e8bd41f0          POP      {r4-r8,lr}
000592  f7ffbffe          B.W      WM_InvalidateWindow
                  |L1.1430|
000596  6765              STR      r5,[r4,#0x74]         ;387
000598  e7f8              B        |L1.1420|
;;;392    }
;;;393    
                          ENDP

                  GRAPH__AddValue PROC
;;;426    */
;;;427    void GRAPH__AddValue(GRAPH_DATA_OBJ * pDataObj, void * pData, void * pValue, int Size) {
00059a  e92d41f0          PUSH     {r4-r8,lr}
00059e  4604              MOV      r4,r0
0005a0  460e              MOV      r6,r1
0005a2  4617              MOV      r7,r2
0005a4  461d              MOV      r5,r3
;;;428      if (pDataObj->PaintObj.hGraph) {
0005a6  8920              LDRH     r0,[r4,#8]
0005a8  2800              CMP      r0,#0
0005aa  d020              BEQ      |L1.1518|
;;;429        if (pDataObj->NumItems == pDataObj->MaxNumItems) {
0005ac  6921              LDR      r1,[r4,#0x10]
0005ae  68e0              LDR      r0,[r4,#0xc]
0005b0  4288              CMP      r0,r1
0005b2  d10f              BNE      |L1.1492|
;;;430          memmove((U8 *)pData, (U8 *)pData + Size, Size * (pDataObj->MaxNumItems - 1));
0005b4  1e48              SUBS     r0,r1,#1
0005b6  fb00f205          MUL      r2,r0,r5
0005ba  1971              ADDS     r1,r6,r5
0005bc  4630              MOV      r0,r6
0005be  f7fffffe          BL       __aeabi_memmove
;;;431          memmove((U8 *)pData + Size * (pDataObj->NumItems - 1), pValue, Size);
0005c2  68e0              LDR      r0,[r4,#0xc]
0005c4  462a              MOV      r2,r5
0005c6  1e40              SUBS     r0,r0,#1
0005c8  fb056000          MLA      r0,r5,r0,r6
0005cc  4639              MOV      r1,r7
0005ce  f7fffffe          BL       __aeabi_memmove
0005d2  e007              B        |L1.1508|
                  |L1.1492|
;;;432        } else {
;;;433          memmove((U8 *)pData + Size * pDataObj->NumItems++, pValue, Size);
0005d4  1c41              ADDS     r1,r0,#1
0005d6  fb056000          MLA      r0,r5,r0,r6
0005da  60e1              STR      r1,[r4,#0xc]
0005dc  462a              MOV      r2,r5
0005de  4639              MOV      r1,r7
0005e0  f7fffffe          BL       __aeabi_memmove
                  |L1.1508|
;;;434        }
;;;435        _InvalidateGraph(pDataObj->PaintObj.hGraph);
0005e4  f9b40008          LDRSH    r0,[r4,#8]
0005e8  e8bd41f0          POP      {r4-r8,lr}
0005ec  e7fe              B        _InvalidateGraph
                  |L1.1518|
;;;436      }
;;;437    }
0005ee  e8bd81f0          POP      {r4-r8,pc}
;;;438    
                          ENDP

                  GRAPH_Callback PROC
;;;448    */
;;;449    void GRAPH_Callback (WM_MESSAGE * pMsg) {
0005f2  e92d41f0          PUSH     {r4-r8,lr}
0005f6  4604              MOV      r4,r0
;;;450      int Result, ManageScrollBars = 0;
0005f8  2500              MOVS     r5,#0
;;;451      GRAPH_Handle hObj;
;;;452      GRAPH_OBJ  * pObj;
;;;453      hObj = pMsg->hWin;
0005fa  f9b48004          LDRSH    r8,[r4,#4]
;;;454      pObj = (GRAPH_OBJ *)GUI_ALLOC_h2p(hObj); /* Don't use use WIDGET_H2P because WIDGET_INIT_ID() has not be called at this point */
0005fe  4640              MOV      r0,r8
000600  f7fffffe          BL       GUI_ALLOC_h2p
000604  4607              MOV      r7,r0
;;;455      /* Let widget handle the standard messages */
;;;456      if (pMsg->MsgId == WM_WIDGET_SET_EFFECT) {
000606  6820              LDR      r0,[r4,#0]
000608  f5b07f40          CMP      r0,#0x300
00060c  d100              BNE      |L1.1552|
;;;457        ManageScrollBars = 1;
00060e  2501              MOVS     r5,#1
                  |L1.1552|
;;;458      }
;;;459      Result = WIDGET_HandleActive(hObj, pMsg);
000610  4621              MOV      r1,r4
000612  4640              MOV      r0,r8
000614  f7fffffe          BL       WIDGET_HandleActive
000618  4606              MOV      r6,r0
;;;460      if (ManageScrollBars) {
00061a  b11d              CBZ      r5,|L1.1572|
;;;461        _ManageScrollBars(pObj, hObj);
00061c  4641              MOV      r1,r8
00061e  4638              MOV      r0,r7
000620  f7fffffe          BL       _ManageScrollBars
                  |L1.1572|
;;;462      }
;;;463      if (!Result) {
000624  2e00              CMP      r6,#0
000626  d039              BEQ      |L1.1692|
;;;464        return;
;;;465      }
;;;466      switch (pMsg->MsgId) {
000628  6820              LDR      r0,[r4,#0]
00062a  2805              CMP      r0,#5
00062c  d006              BEQ      |L1.1596|
00062e  280b              CMP      r0,#0xb
000630  d00f              BEQ      |L1.1618|
000632  280f              CMP      r0,#0xf
000634  d007              BEQ      |L1.1606|
000636  2826              CMP      r0,#0x26
000638  d12b              BNE      |L1.1682|
00063a  e00e              B        |L1.1626|
                  |L1.1596|
;;;467      case WM_SIZE:
;;;468        _ManageScrollBars(pObj, hObj);
00063c  4641              MOV      r1,r8
00063e  4638              MOV      r0,r7
000640  f7fffffe          BL       _ManageScrollBars
;;;469        break;
000644  e025              B        |L1.1682|
                  |L1.1606|
;;;470      case WM_PAINT:
;;;471        _OnPaint(pObj, hObj, (GUI_RECT *)pMsg->Data.p);
000646  4641              MOV      r1,r8
000648  4638              MOV      r0,r7
00064a  68a2              LDR      r2,[r4,#8]
00064c  e8bd41f0          POP      {r4-r8,lr}
000650  e7fe              B        _OnPaint
                  |L1.1618|
;;;472        return;
;;;473      case WM_DELETE:
;;;474        _OnDelete(pObj);
000652  4638              MOV      r0,r7
000654  e8bd41f0          POP      {r4-r8,lr}
000658  e7fe              B        _OnDelete
                  |L1.1626|
;;;475        return;
;;;476      case WM_NOTIFY_PARENT:
;;;477        switch (pMsg->Data.v) {
00065a  68a0              LDR      r0,[r4,#8]
00065c  2805              CMP      r0,#5
00065e  d118              BNE      |L1.1682|
;;;478        case WM_NOTIFICATION_VALUE_CHANGED:
;;;479          if (pMsg->hWinSrc  == WM_GetScrollbarV(hObj)) {
000660  4640              MOV      r0,r8
000662  f7fffffe          BL       WM_GetScrollbarV
000666  f9b42006          LDRSH    r2,[r4,#6]
00066a  4290              CMP      r0,r2
00066c  d105              BNE      |L1.1658|
;;;480            _OnScrollValueChanged(pObj, pMsg->hWin, pMsg->hWinSrc);
00066e  f9b41004          LDRSH    r1,[r4,#4]
000672  4638              MOV      r0,r7
000674  f7fffffe          BL       _OnScrollValueChanged
000678  e00b              B        |L1.1682|
                  |L1.1658|
;;;481          } else if (pMsg->hWinSrc == WM_GetScrollbarH(hObj)) {
00067a  4640              MOV      r0,r8
00067c  f7fffffe          BL       WM_GetScrollbarH
000680  f9b42006          LDRSH    r2,[r4,#6]
000684  4290              CMP      r0,r2
000686  d104              BNE      |L1.1682|
;;;482            _OnScrollValueChanged(pObj, pMsg->hWin, pMsg->hWinSrc);
000688  f9b41004          LDRSH    r1,[r4,#4]
00068c  4638              MOV      r0,r7
00068e  f7fffffe          BL       _OnScrollValueChanged
                  |L1.1682|
;;;483          }
;;;484          break;
;;;485        case WM_NOTIFICATION_SCROLLBAR_ADDED:
;;;486          #if WIDGET_USE_PARENT_EFFECT
;;;487            WIDGET_SetEffect(pMsg->hWinSrc, pObj->Widget.pEffect);
;;;488          #endif
;;;489          break;
;;;490        }
;;;491      }
;;;492      WM_DefaultProc(pMsg);
000692  4620              MOV      r0,r4
000694  e8bd41f0          POP      {r4-r8,lr}
000698  f7ffbffe          B.W      WM_DefaultProc
                  |L1.1692|
;;;493    }
00069c  e8bd81f0          POP      {r4-r8,pc}
;;;494    
                          ENDP

                  GRAPH_CreateEx PROC
;;;504    */
;;;505    GRAPH_Handle GRAPH_CreateEx(int x0, int y0, int xsize, int ysize, WM_HWIN hParent,
0006a0  e92d4ff0          PUSH     {r4-r11,lr}
;;;506                                int WinFlags, int ExFlags, int Id)
;;;507    {
0006a4  b085              SUB      sp,sp,#0x14
0006a6  4680              MOV      r8,r0
0006a8  4689              MOV      r9,r1
0006aa  4692              MOV      r10,r2
0006ac  469b              MOV      r11,r3
0006ae  9f11              LDR      r7,[sp,#0x44]
0006b0  9e10              LDR      r6,[sp,#0x40]
0006b2  9d0e              LDR      r5,[sp,#0x38]
0006b4  9c0f              LDR      r4,[sp,#0x3c]
;;;508      GRAPH_Handle hObj;
;;;509      WM_LOCK();
0006b6  f7fffffe          BL       GUI_Lock
;;;510      hObj = WM_CreateWindowAsChild(x0, y0, xsize, ysize, hParent, WinFlags, GRAPH_Callback,
0006ba  236c              MOVS     r3,#0x6c
0006bc  f2af02cd          ADR      r2,GRAPH_Callback + 1
0006c0  b2a1              UXTH     r1,r4
0006c2  9303              STR      r3,[sp,#0xc]
0006c4  9202              STR      r2,[sp,#8]
0006c6  9101              STR      r1,[sp,#4]
0006c8  9500              STR      r5,[sp,#0]
0006ca  465b              MOV      r3,r11
0006cc  4652              MOV      r2,r10
0006ce  4649              MOV      r1,r9
0006d0  4640              MOV      r0,r8
0006d2  f7fffffe          BL       WM_CreateWindowAsChild
0006d6  4605              MOV      r5,r0
;;;511                                    sizeof(GRAPH_OBJ) - sizeof(WM_Obj));
;;;512      if (hObj) {
0006d8  b355              CBZ      r5,|L1.1840|
;;;513        GRAPH_OBJ * pObj;
;;;514        pObj = (GRAPH_OBJ *)GUI_ALLOC_h2p(hObj); /* Don't use use WIDGET_H2P because WIDGET_INIT_ID() has not be called at this point */
0006da  4628              MOV      r0,r5
0006dc  f7fffffe          BL       GUI_ALLOC_h2p
0006e0  4604              MOV      r4,r0
;;;515        /* Init sub-classes */
;;;516        GUI_ARRAY_CREATE(&pObj->GraphArray);
;;;517        GUI_ARRAY_CREATE(&pObj->ScaleArray);
;;;518        /* Init widget specific variables */
;;;519        WIDGET__Init(&pObj->Widget, Id, 0);
0006e2  2200              MOVS     r2,#0
0006e4  4639              MOV      r1,r7
0006e6  4620              MOV      r0,r4
0006e8  f7fffffe          BL       WIDGET__Init
;;;520        /* Init member variables */
;;;521        GRAPH_INIT_ID(pObj);
;;;522        pObj->Props = GRAPH__DefaultProps;
0006ec  49ce              LDR      r1,|L1.2600|
0006ee  4620              MOV      r0,r4
0006f0  f8d1c008          LDR      r12,[r1,#8]  ; GRAPH__DefaultProps
0006f4  68cf              LDR      r7,[r1,#0xc]  ; GRAPH__DefaultProps
0006f6  684b              LDR      r3,[r1,#4]  ; GRAPH__DefaultProps
0006f8  680a              LDR      r2,[r1,#0]  ; GRAPH__DefaultProps
0006fa  f8c4c030          STR      r12,[r4,#0x30]
0006fe  6367              STR      r7,[r4,#0x34]
000700  62e3              STR      r3,[r4,#0x2c]
000702  62a2              STR      r2,[r4,#0x28]
000704  f8d1c018          LDR      r12,[r1,#0x18]  ; GRAPH__DefaultProps
000708  69cf              LDR      r7,[r1,#0x1c]  ; GRAPH__DefaultProps
00070a  694b              LDR      r3,[r1,#0x14]  ; GRAPH__DefaultProps
00070c  690a              LDR      r2,[r1,#0x10]  ; GRAPH__DefaultProps
00070e  f8c4c040          STR      r12,[r4,#0x40]
000712  63e3              STR      r3,[r4,#0x3c]
000714  63a2              STR      r2,[r4,#0x38]
000716  6447              STR      r7,[r0,#0x44]
000718  f8d1c028          LDR      r12,[r1,#0x28]  ; GRAPH__DefaultProps
00071c  6a4b              LDR      r3,[r1,#0x24]  ; GRAPH__DefaultProps
00071e  6a0a              LDR      r2,[r1,#0x20]  ; GRAPH__DefaultProps
000720  6ac9              LDR      r1,[r1,#0x2c]  ; GRAPH__DefaultProps
000722  f8c0c050          STR      r12,[r0,#0x50]
000726  64c3              STR      r3,[r0,#0x4c]
000728  6482              STR      r2,[r0,#0x48]
00072a  6541              STR      r1,[r0,#0x54]
;;;523        pObj->Flags = ExFlags;
00072c  f8a4606c          STRH     r6,[r4,#0x6c]
                  |L1.1840|
;;;524      }
;;;525      WM_UNLOCK();
000730  f7fffffe          BL       GUI_Unlock
;;;526      return hObj;
;;;527    }
000734  b005              ADD      sp,sp,#0x14
000736  4628              MOV      r0,r5                 ;526
000738  e8bd8ff0          POP      {r4-r11,pc}
;;;528    
                          ENDP

                  GRAPH_AttachData PROC
;;;532    */
;;;533    void GRAPH_AttachData(GRAPH_Handle hObj, GRAPH_DATA_Handle hData) {
00073c  b573              PUSH     {r0,r1,r4-r6,lr}
00073e  4604              MOV      r4,r0
;;;534      if (hObj) {
000740  2c00              CMP      r4,#0
000742  d015              BEQ      |L1.1904|
;;;535        GRAPH_OBJ * pObj;
;;;536        GRAPH_DATA_OBJ * pDataObj;
;;;537        WM_LOCK();
000744  f7fffffe          BL       GUI_Lock
;;;538        pObj = GRAPH_H2P(hObj);
000748  4620              MOV      r0,r4
00074a  f7fffffe          BL       GUI_ALLOC_h2p
00074e  4605              MOV      r5,r0
;;;539        pDataObj = (GRAPH_DATA_OBJ *)GUI_ALLOC_h2p(hData);
000750  f9bd0004          LDRSH    r0,[sp,#4]
000754  f7fffffe          BL       GUI_ALLOC_h2p
;;;540        pDataObj->PaintObj.hGraph = hObj;
000758  8104              STRH     r4,[r0,#8]
;;;541        GUI_ARRAY_AddItem(&pObj->GraphArray, &hData, sizeof(GRAPH_DATA_Handle));
00075a  2202              MOVS     r2,#2
00075c  a901              ADD      r1,sp,#4
00075e  f1050058          ADD      r0,r5,#0x58
000762  f7fffffe          BL       GUI_ARRAY_AddItem
;;;542        WM_InvalidateWindow(hObj);
000766  4620              MOV      r0,r4
000768  f7fffffe          BL       WM_InvalidateWindow
;;;543        WM_UNLOCK();
00076c  f7fffffe          BL       GUI_Unlock
                  |L1.1904|
;;;544      }
;;;545    }
000770  b002              ADD      sp,sp,#8
000772  bd70              POP      {r4-r6,pc}
;;;546    
                          ENDP

                  GRAPH_AttachScale PROC
;;;550    */
;;;551    void GRAPH_AttachScale(GRAPH_Handle hObj, GRAPH_SCALE_Handle hScale) {
000774  b573              PUSH     {r0,r1,r4-r6,lr}
000776  4604              MOV      r4,r0
;;;552      if (hObj) {
000778  2c00              CMP      r4,#0
00077a  d015              BEQ      |L1.1960|
;;;553        GRAPH_OBJ * pObj;
;;;554        GRAPH_SCALE_OBJ * pScaleObj;
;;;555        WM_LOCK();
00077c  f7fffffe          BL       GUI_Lock
;;;556        pObj = GRAPH_H2P(hObj);
000780  4620              MOV      r0,r4
000782  f7fffffe          BL       GUI_ALLOC_h2p
000786  4605              MOV      r5,r0
;;;557        pScaleObj = (GRAPH_SCALE_OBJ *)GUI_ALLOC_h2p(hScale);
000788  f9bd0004          LDRSH    r0,[sp,#4]
00078c  f7fffffe          BL       GUI_ALLOC_h2p
;;;558        pScaleObj->PaintObj.hGraph = hObj;
000790  8104              STRH     r4,[r0,#8]
;;;559        GUI_ARRAY_AddItem(&pObj->ScaleArray, &hScale, sizeof(GRAPH_SCALE_Handle));
000792  2202              MOVS     r2,#2
000794  a901              ADD      r1,sp,#4
000796  f105005c          ADD      r0,r5,#0x5c
00079a  f7fffffe          BL       GUI_ARRAY_AddItem
;;;560        WM_InvalidateWindow(hObj);
00079e  4620              MOV      r0,r4
0007a0  f7fffffe          BL       WM_InvalidateWindow
;;;561        WM_UNLOCK();
0007a4  f7fffffe          BL       GUI_Unlock
                  |L1.1960|
;;;562      }
;;;563    }
0007a8  b002              ADD      sp,sp,#8
0007aa  bd70              POP      {r4-r6,pc}
;;;564    
                          ENDP

                  GRAPH_SetColor PROC
;;;568    */
;;;569    GUI_COLOR GRAPH_SetColor(GRAPH_Handle hObj, GUI_COLOR Color, unsigned Index) {
0007ac  e92d41f0          PUSH     {r4-r8,lr}
0007b0  4607              MOV      r7,r0
0007b2  460d              MOV      r5,r1
0007b4  4616              MOV      r6,r2
;;;570      GUI_COLOR OldColor = 0;
0007b6  2400              MOVS     r4,#0
;;;571      if (hObj) {
0007b8  b18f              CBZ      r7,|L1.2014|
;;;572        GRAPH_OBJ * pObj;
;;;573        WM_LOCK();
0007ba  f7fffffe          BL       GUI_Lock
;;;574        pObj = GRAPH_H2P(hObj);
0007be  4638              MOV      r0,r7
0007c0  f7fffffe          BL       GUI_ALLOC_h2p
;;;575        if (Index < GUI_COUNTOF(pObj->Props.aColor)) {
0007c4  2e04              CMP      r6,#4
0007c6  d208              BCS      |L1.2010|
;;;576          OldColor = pObj->Props.aColor[Index];
0007c8  eb000286          ADD      r2,r0,r6,LSL #2
0007cc  6a94              LDR      r4,[r2,#0x28]
;;;577          if (pObj->Props.aColor[Index] != Color) {
0007ce  42ac              CMP      r4,r5
0007d0  d003              BEQ      |L1.2010|
;;;578            pObj->Props.aColor[Index] = Color;
0007d2  6295              STR      r5,[r2,#0x28]
;;;579            WM_InvalidateWindow(hObj);
0007d4  4638              MOV      r0,r7
0007d6  f7fffffe          BL       WM_InvalidateWindow
                  |L1.2010|
;;;580          }
;;;581        }
;;;582        WM_UNLOCK();
0007da  f7fffffe          BL       GUI_Unlock
                  |L1.2014|
;;;583      }
;;;584      return OldColor;
0007de  4620              MOV      r0,r4
;;;585    }
0007e0  e8bd81f0          POP      {r4-r8,pc}
;;;586    
                          ENDP

                  GRAPH_SetGridVis PROC
;;;590    */
;;;591    unsigned GRAPH_SetGridVis(GRAPH_Handle hObj, unsigned OnOff) {
0007e4  b570              PUSH     {r4-r6,lr}
0007e6  4606              MOV      r6,r0
0007e8  460d              MOV      r5,r1
;;;592      unsigned OldValue = 0;
0007ea  2400              MOVS     r4,#0
;;;593      if (hObj) {
0007ec  b19e              CBZ      r6,|L1.2070|
;;;594        GRAPH_OBJ * pObj;
;;;595        WM_LOCK();
0007ee  f7fffffe          BL       GUI_Lock
;;;596        pObj = GRAPH_H2P(hObj);
0007f2  4630              MOV      r0,r6
0007f4  f7fffffe          BL       GUI_ALLOC_h2p
;;;597        OldValue = pObj->ShowGrid;
0007f8  f8904060          LDRB     r4,[r0,#0x60]
;;;598        if ((unsigned)pObj->ShowGrid != OnOff) {
0007fc  42ac              CMP      r4,r5
0007fe  d008              BEQ      |L1.2066|
;;;599          pObj->ShowGrid = OnOff ? 1 : 0;
000800  b10d              CBZ      r5,|L1.2054|
000802  2101              MOVS     r1,#1
000804  e000              B        |L1.2056|
                  |L1.2054|
000806  2100              MOVS     r1,#0
                  |L1.2056|
000808  f8801060          STRB     r1,[r0,#0x60]
;;;600          WM_InvalidateWindow(hObj);
00080c  4630              MOV      r0,r6
00080e  f7fffffe          BL       WM_InvalidateWindow
                  |L1.2066|
;;;601        }
;;;602        WM_UNLOCK();
000812  f7fffffe          BL       GUI_Unlock
                  |L1.2070|
;;;603      }
;;;604      return OldValue;
000816  4620              MOV      r0,r4
;;;605    }
000818  bd70              POP      {r4-r6,pc}
;;;606    
                          ENDP

                  GRAPH_SetGridDistX PROC
;;;610    */
;;;611    unsigned GRAPH_SetGridDistX(GRAPH_Handle hObj, unsigned Value) {
00081a  b570              PUSH     {r4-r6,lr}
00081c  4606              MOV      r6,r0
00081e  460d              MOV      r5,r1
;;;612      unsigned OldValue = 0;
000820  2400              MOVS     r4,#0
;;;613      if (hObj) {
000822  b16e              CBZ      r6,|L1.2112|
;;;614        GRAPH_OBJ * pObj;
;;;615        WM_LOCK();
000824  f7fffffe          BL       GUI_Lock
;;;616        pObj = GRAPH_H2P(hObj);
000828  4630              MOV      r0,r6
00082a  f7fffffe          BL       GUI_ALLOC_h2p
;;;617        OldValue = pObj->Props.GridSpacingX;
00082e  6b84              LDR      r4,[r0,#0x38]
;;;618        if (pObj->Props.GridSpacingX != Value) {
000830  42ac              CMP      r4,r5
000832  d003              BEQ      |L1.2108|
;;;619          pObj->Props.GridSpacingX = Value;
000834  6385              STR      r5,[r0,#0x38]
;;;620          WM_InvalidateWindow(hObj);
000836  4630              MOV      r0,r6
000838  f7fffffe          BL       WM_InvalidateWindow
                  |L1.2108|
;;;621        }
;;;622        WM_UNLOCK();
00083c  f7fffffe          BL       GUI_Unlock
                  |L1.2112|
;;;623      }
;;;624      return OldValue;
000840  4620              MOV      r0,r4
;;;625    }
000842  bd70              POP      {r4-r6,pc}
;;;626    
                          ENDP

                  GRAPH_SetGridDistY PROC
;;;630    */
;;;631    unsigned GRAPH_SetGridDistY(GRAPH_Handle hObj, unsigned Value) {
000844  b570              PUSH     {r4-r6,lr}
000846  4606              MOV      r6,r0
000848  460d              MOV      r5,r1
;;;632      unsigned OldValue = 0;
00084a  2400              MOVS     r4,#0
;;;633      if (hObj) {
00084c  b16e              CBZ      r6,|L1.2154|
;;;634        GRAPH_OBJ * pObj;
;;;635        WM_LOCK();
00084e  f7fffffe          BL       GUI_Lock
;;;636        pObj = GRAPH_H2P(hObj);
000852  4630              MOV      r0,r6
000854  f7fffffe          BL       GUI_ALLOC_h2p
;;;637        OldValue = pObj->Props.GridSpacingY;
000858  6bc4              LDR      r4,[r0,#0x3c]
;;;638        if (pObj->Props.GridSpacingY != Value) {
00085a  42ac              CMP      r4,r5
00085c  d003              BEQ      |L1.2150|
;;;639          pObj->Props.GridSpacingY = Value;
00085e  63c5              STR      r5,[r0,#0x3c]
;;;640          WM_InvalidateWindow(hObj);
000860  4630              MOV      r0,r6
000862  f7fffffe          BL       WM_InvalidateWindow
                  |L1.2150|
;;;641        }
;;;642        WM_UNLOCK();
000866  f7fffffe          BL       GUI_Unlock
                  |L1.2154|
;;;643      }
;;;644      return OldValue;
00086a  4620              MOV      r0,r4
;;;645    }
00086c  bd70              POP      {r4-r6,pc}
;;;646    
                          ENDP

                  GRAPH_SetGridOffY PROC
;;;650    */
;;;651    unsigned GRAPH_SetGridOffY(GRAPH_Handle hObj, unsigned Value) {
00086e  b570              PUSH     {r4-r6,lr}
000870  4605              MOV      r5,r0
000872  460e              MOV      r6,r1
;;;652      unsigned OldValue = 0;
000874  2400              MOVS     r4,#0
;;;653      if (hObj) {
000876  b15d              CBZ      r5,|L1.2192|
;;;654        WM_LOCK();
000878  f7fffffe          BL       GUI_Lock
;;;655        OldValue = _SetGridOffY(GRAPH_H2P(hObj), hObj, Value);
00087c  4628              MOV      r0,r5
00087e  f7fffffe          BL       GUI_ALLOC_h2p
000882  4632              MOV      r2,r6
000884  4629              MOV      r1,r5
000886  f7fffffe          BL       _SetGridOffY
00088a  4604              MOV      r4,r0
;;;656        WM_UNLOCK();
00088c  f7fffffe          BL       GUI_Unlock
                  |L1.2192|
;;;657      }
;;;658      return OldValue;
000890  4620              MOV      r0,r4
;;;659    }
000892  bd70              POP      {r4-r6,pc}
;;;660    
                          ENDP

                  GRAPH_SetBorder PROC
;;;664    */
;;;665    void GRAPH_SetBorder(GRAPH_Handle hObj, unsigned BorderL, unsigned BorderT, unsigned BorderR, unsigned BorderB) {
000894  e92d41f0          PUSH     {r4-r8,lr}
000898  4607              MOV      r7,r0
00089a  9c06              LDR      r4,[sp,#0x18]
00089c  460d              MOV      r5,r1
00089e  4616              MOV      r6,r2
0008a0  4698              MOV      r8,r3
;;;666      if (hObj) {
0008a2  2f00              CMP      r7,#0
0008a4  d013              BEQ      |L1.2254|
;;;667        GRAPH_OBJ * pObj;
;;;668        WM_LOCK();
0008a6  f7fffffe          BL       GUI_Lock
;;;669        pObj = GRAPH_H2P(hObj);
0008aa  4638              MOV      r0,r7
0008ac  f7fffffe          BL       GUI_ALLOC_h2p
;;;670        pObj->Props.BorderL = BorderL;
0008b0  6485              STR      r5,[r0,#0x48]
;;;671        pObj->Props.BorderT = BorderT;
0008b2  64c6              STR      r6,[r0,#0x4c]
;;;672        pObj->Props.BorderR = BorderR;
0008b4  f8c08050          STR      r8,[r0,#0x50]
;;;673        pObj->Props.BorderB = BorderB;
0008b8  6544              STR      r4,[r0,#0x54]
;;;674        _ManageScrollBars(pObj, hObj);
0008ba  4639              MOV      r1,r7
0008bc  f7fffffe          BL       _ManageScrollBars
;;;675        WM_InvalidateWindow(hObj);
0008c0  4638              MOV      r0,r7
0008c2  f7fffffe          BL       WM_InvalidateWindow
;;;676        WM_UNLOCK();
0008c6  e8bd41f0          POP      {r4-r8,lr}
0008ca  f7ffbffe          B.W      GUI_Unlock
                  |L1.2254|
;;;677      }
;;;678    }
0008ce  e8bd81f0          POP      {r4-r8,pc}
;;;679    
                          ENDP

                  GRAPH_SetUserDraw PROC
;;;683    */
;;;684    void GRAPH_SetUserDraw(GRAPH_Handle hObj, void (* pUserDraw)(WM_HWIN hObj, int Stage)) {
0008d2  b570              PUSH     {r4-r6,lr}
0008d4  4605              MOV      r5,r0
0008d6  460c              MOV      r4,r1
;;;685      if (hObj) {
0008d8  2d00              CMP      r5,#0
0008da  d00d              BEQ      |L1.2296|
;;;686        GRAPH_OBJ * pObj;
;;;687        WM_LOCK();
0008dc  f7fffffe          BL       GUI_Lock
;;;688        pObj = GRAPH_H2P(hObj);
0008e0  4628              MOV      r0,r5
0008e2  f7fffffe          BL       GUI_ALLOC_h2p
;;;689        pObj->pUserDraw = pUserDraw;
0008e6  f8c04088          STR      r4,[r0,#0x88]
;;;690        WM_InvalidateWindow(hObj);
0008ea  4628              MOV      r0,r5
0008ec  f7fffffe          BL       WM_InvalidateWindow
;;;691        WM_UNLOCK();
0008f0  e8bd4070          POP      {r4-r6,lr}
0008f4  f7ffbffe          B.W      GUI_Unlock
                  |L1.2296|
;;;692      }
;;;693    }
0008f8  bd70              POP      {r4-r6,pc}
;;;694    
                          ENDP

                  GRAPH_SetVSizeX PROC
;;;698    */
;;;699    unsigned GRAPH_SetVSizeX(GRAPH_Handle hObj, unsigned Value) {
0008fa  b570              PUSH     {r4-r6,lr}
0008fc  4606              MOV      r6,r0
0008fe  460d              MOV      r5,r1
;;;700      unsigned OldValue = 0;
000900  2400              MOVS     r4,#0
;;;701      if (hObj) {
000902  b186              CBZ      r6,|L1.2342|
;;;702        GRAPH_OBJ * pObj;
;;;703        WM_LOCK();
000904  f7fffffe          BL       GUI_Lock
;;;704        pObj = GRAPH_H2P(hObj);
000908  4630              MOV      r0,r6
00090a  f7fffffe          BL       GUI_ALLOC_h2p
;;;705        OldValue = pObj->RangeX;
00090e  6e44              LDR      r4,[r0,#0x64]
;;;706        if (pObj->RangeX != Value) {
000910  42ac              CMP      r4,r5
000912  d006              BEQ      |L1.2338|
;;;707          pObj->RangeX = Value;
000914  6645              STR      r5,[r0,#0x64]
;;;708          _ManageScrollBars(pObj, hObj);
000916  4631              MOV      r1,r6
000918  f7fffffe          BL       _ManageScrollBars
;;;709          WM_InvalidateWindow(hObj);
00091c  4630              MOV      r0,r6
00091e  f7fffffe          BL       WM_InvalidateWindow
                  |L1.2338|
;;;710        }
;;;711        WM_UNLOCK();
000922  f7fffffe          BL       GUI_Unlock
                  |L1.2342|
;;;712      }
;;;713      return OldValue;
000926  4620              MOV      r0,r4
;;;714    }
000928  bd70              POP      {r4-r6,pc}
;;;715    
                          ENDP

                  GRAPH_SetVSizeY PROC
;;;719    */
;;;720    unsigned GRAPH_SetVSizeY(GRAPH_Handle hObj, unsigned Value) {
00092a  b570              PUSH     {r4-r6,lr}
00092c  4606              MOV      r6,r0
00092e  460d              MOV      r5,r1
;;;721      unsigned OldValue = 0;
000930  2400              MOVS     r4,#0
;;;722      if (hObj) {
000932  b186              CBZ      r6,|L1.2390|
;;;723        GRAPH_OBJ * pObj;
;;;724        WM_LOCK();
000934  f7fffffe          BL       GUI_Lock
;;;725        pObj = GRAPH_H2P(hObj);
000938  4630              MOV      r0,r6
00093a  f7fffffe          BL       GUI_ALLOC_h2p
;;;726        OldValue = pObj->RangeY;
00093e  6e84              LDR      r4,[r0,#0x68]
;;;727        if (pObj->RangeY != Value) {
000940  42ac              CMP      r4,r5
000942  d006              BEQ      |L1.2386|
;;;728          pObj->RangeY = Value;
000944  6685              STR      r5,[r0,#0x68]
;;;729          _ManageScrollBars(pObj, hObj);
000946  4631              MOV      r1,r6
000948  f7fffffe          BL       _ManageScrollBars
;;;730          WM_InvalidateWindow(hObj);
00094c  4630              MOV      r0,r6
00094e  f7fffffe          BL       WM_InvalidateWindow
                  |L1.2386|
;;;731        }
;;;732        WM_UNLOCK();
000952  f7fffffe          BL       GUI_Unlock
                  |L1.2390|
;;;733      }
;;;734      return OldValue;
000956  4620              MOV      r0,r4
;;;735    }
000958  bd70              POP      {r4-r6,pc}
;;;736    
                          ENDP

                  GRAPH_SetGridFixedX PROC
;;;740    */
;;;741    unsigned GRAPH_SetGridFixedX(GRAPH_Handle hObj, unsigned OnOff) {
00095a  b570              PUSH     {r4-r6,lr}
00095c  4606              MOV      r6,r0
00095e  460d              MOV      r5,r1
;;;742      unsigned OldValue = 0;
000960  2400              MOVS     r4,#0
;;;743      if (hObj) {
000962  b31e              CBZ      r6,|L1.2476|
;;;744        GRAPH_OBJ * pObj;
;;;745        WM_LOCK();
000964  f7fffffe          BL       GUI_Lock
;;;746        pObj = GRAPH_H2P(hObj);
000968  4630              MOV      r0,r6
00096a  f7fffffe          BL       GUI_ALLOC_h2p
;;;747        OldValue = (pObj->Flags & GRAPH_CF_GRID_FIXED_X) ? 1 : 0;
00096e  f8b0206c          LDRH     r2,[r0,#0x6c]
000972  f0020401          AND      r4,r2,#1
;;;748        if (OldValue & !OnOff) {
000976  b155              CBZ      r5,|L1.2446|
000978  2300              MOVS     r3,#0
                  |L1.2426|
00097a  4223              TST      r3,r4
00097c  d009              BEQ      |L1.2450|
;;;749          pObj->Flags &= ~GRAPH_CF_GRID_FIXED_X;
00097e  f0220101          BIC      r1,r2,#1
000982  f8a0106c          STRH     r1,[r0,#0x6c]
;;;750          WM_InvalidateWindow(hObj);
000986  4630              MOV      r0,r6
000988  f7fffffe          BL       WM_InvalidateWindow
00098c  e00c              B        |L1.2472|
                  |L1.2446|
00098e  2301              MOVS     r3,#1                 ;748
000990  e7f3              B        |L1.2426|
                  |L1.2450|
;;;751        } else if (!OldValue & OnOff) {
000992  b16c              CBZ      r4,|L1.2480|
000994  2300              MOVS     r3,#0
                  |L1.2454|
000996  422b              TST      r3,r5
000998  d006              BEQ      |L1.2472|
;;;752          pObj->Flags |= GRAPH_CF_GRID_FIXED_X;
00099a  f0420101          ORR      r1,r2,#1
00099e  f8a0106c          STRH     r1,[r0,#0x6c]
;;;753          WM_InvalidateWindow(hObj);
0009a2  4630              MOV      r0,r6
0009a4  f7fffffe          BL       WM_InvalidateWindow
                  |L1.2472|
;;;754        }
;;;755        WM_UNLOCK();
0009a8  f7fffffe          BL       GUI_Unlock
                  |L1.2476|
;;;756      }
;;;757      return OldValue;
0009ac  4620              MOV      r0,r4
;;;758    }
0009ae  bd70              POP      {r4-r6,pc}
                  |L1.2480|
0009b0  2301              MOVS     r3,#1                 ;751
0009b2  e7f0              B        |L1.2454|
;;;759    
                          ENDP

                  GRAPH_SetLineStyleH PROC
;;;763    */
;;;764    U8 GRAPH_SetLineStyleH(GRAPH_Handle hObj, U8 Value) {
0009b4  b570              PUSH     {r4-r6,lr}
0009b6  4606              MOV      r6,r0
0009b8  460d              MOV      r5,r1
;;;765      U8 OldValue = 0;
0009ba  2400              MOVS     r4,#0
;;;766      if (hObj) {
0009bc  b17e              CBZ      r6,|L1.2526|
;;;767        GRAPH_OBJ * pObj;
;;;768        WM_LOCK();
0009be  f7fffffe          BL       GUI_Lock
;;;769        pObj = GRAPH_H2P(hObj);
0009c2  4630              MOV      r0,r6
0009c4  f7fffffe          BL       GUI_ALLOC_h2p
;;;770        OldValue = pObj->LineStyleH;
0009c8  f890406f          LDRB     r4,[r0,#0x6f]
;;;771        if (OldValue != Value) {
0009cc  42ac              CMP      r4,r5
0009ce  d004              BEQ      |L1.2522|
;;;772          pObj->LineStyleH = Value;
0009d0  f880506f          STRB     r5,[r0,#0x6f]
;;;773          WM_InvalidateWindow(hObj);
0009d4  4630              MOV      r0,r6
0009d6  f7fffffe          BL       WM_InvalidateWindow
                  |L1.2522|
;;;774        }
;;;775        WM_UNLOCK();
0009da  f7fffffe          BL       GUI_Unlock
                  |L1.2526|
;;;776      }
;;;777      return OldValue;
0009de  4620              MOV      r0,r4
;;;778    }
0009e0  bd70              POP      {r4-r6,pc}
;;;779    
                          ENDP

                  GRAPH_SetLineStyleV PROC
;;;783    */
;;;784    U8 GRAPH_SetLineStyleV(GRAPH_Handle hObj, U8 Value) {
0009e2  b570              PUSH     {r4-r6,lr}
0009e4  4606              MOV      r6,r0
0009e6  460d              MOV      r5,r1
;;;785      U8 OldValue = 0;
0009e8  2400              MOVS     r4,#0
;;;786      if (hObj) {
0009ea  b17e              CBZ      r6,|L1.2572|
;;;787        GRAPH_OBJ * pObj;
;;;788        WM_LOCK();
0009ec  f7fffffe          BL       GUI_Lock
;;;789        pObj = GRAPH_H2P(hObj);
0009f0  4630              MOV      r0,r6
0009f2  f7fffffe          BL       GUI_ALLOC_h2p
;;;790        OldValue = pObj->LineStyleV;
0009f6  f890406e          LDRB     r4,[r0,#0x6e]
;;;791        if (OldValue != Value) {
0009fa  42ac              CMP      r4,r5
0009fc  d004              BEQ      |L1.2568|
;;;792          pObj->LineStyleV = Value;
0009fe  f880506e          STRB     r5,[r0,#0x6e]
;;;793          WM_InvalidateWindow(hObj);
000a02  4630              MOV      r0,r6
000a04  f7fffffe          BL       WM_InvalidateWindow
                  |L1.2568|
;;;794        }
;;;795        WM_UNLOCK();
000a08  f7fffffe          BL       GUI_Unlock
                  |L1.2572|
;;;796      }
;;;797      return OldValue;
000a0c  4620              MOV      r0,r4
;;;798    }
000a0e  bd70              POP      {r4-r6,pc}
;;;799    
                          ENDP

                  GRAPH_SetLineStyle PROC
;;;803    */
;;;804    void GRAPH_SetLineStyle(GRAPH_Handle hObj, U8 Value) {
000a10  b570              PUSH     {r4-r6,lr}
000a12  4604              MOV      r4,r0
000a14  460d              MOV      r5,r1
;;;805      GRAPH_SetLineStyleV(hObj, Value);
000a16  4629              MOV      r1,r5
000a18  4620              MOV      r0,r4
000a1a  f7fffffe          BL       GRAPH_SetLineStyleV
;;;806      GRAPH_SetLineStyleH(hObj, Value);
000a1e  4629              MOV      r1,r5
000a20  4620              MOV      r0,r4
000a22  e8bd4070          POP      {r4-r6,lr}
000a26  e7fe              B        GRAPH_SetLineStyleH
;;;807    }
;;;808    
                          ENDP

                  |L1.2600|
                          DCD      ||.data||

                          AREA ||.data||, DATA, ALIGN=2

                  GRAPH__DefaultProps
                          DCD      0x00000000
                          DCD      0x00c0c0c0
                          DCD      0x00ffffff
                          DCD      0x00404040
                          DCD      0x00000032
                          DCD      0x00000032
                          DCD      0x00000000
                          DCD      0x00000000
                          DCD      0x00000000
                          DCD      0x00000000
                          DCD      0x00000000
                          DCD      0x00000000
