; generated by ARM C/C++ Compiler, 4.1 [Build 481]
; commandline ArmCC [--debug -c --asm --interleave -o.\rvmdk\gui_dispstringinrectex.o --depend=.\rvmdk\gui_dispstringinrectex.d --cpu=Cortex-M3 --apcs=interwork -O1 -Otime -I. -I..\BSP -I..\..\..\..\..\uCOS-II\Ports\arm-cortex-m3\Generic\RealView -I..\..\..\..\..\uCOS-II\Source -I..\..\..\..\..\CPU\ST\STM32\inc -I..\..\..\..\..\uC-CPU -I..\..\..\..\..\uC-CPU\Arm-Cortex-M3\RealView -I..\..\..\..\..\uC-LIB -I..\..\..\..\..\uC-Probe\Target\Plugins\uCOS-II -I..\..\..\..\..\uC-Probe\Target\Communication\Generic\Source -I..\..\..\..\..\uC-Probe\Target\Communication\Generic\RS-232\Ports\ST\STM32 -I..\..\..\..\..\uC-Probe\Target\Communication\Generic\RS-232\Source -I..\..\..\..\..\User\inc -I..\..\..\..\..\uCGUI\Config -I..\..\..\..\..\uCGUI\GUIDemo -I..\..\..\..\..\uCGUI\LCDDriver -I..\..\..\..\..\uCGUI\GUI\AntiAlias -I..\..\..\..\..\uCGUI\GUI\ConvertColor -I..\..\..\..\..\uCGUI\GUI\ConvertMono -I..\..\..\..\..\uCGUI\GUI\Core -I..\..\..\..\..\uCGUI\GUI\Font -I..\..\..\..\..\uCGUI\GUI\LCDDriver -I..\..\..\..\..\uCGUI\GUI\MemDev -I..\..\..\..\..\uCGUI\GUI\MultiLayer -I..\..\..\..\..\uCGUI\GUI\Widget -I..\..\..\..\..\uCGUI\GUI\WM -Id:\Keil-stm32\ARM\INC -Id:\Keil-stm32\ARM\INC\ST\STM32F10x -D__MICROLIB --omf_browse=.\rvmdk\gui_dispstringinrectex.crf ..\..\..\..\..\uCGUI\GUI\Core\GUI_DispStringInRectEx.c]
                          THUMB

                          AREA ||.text||, CODE, READONLY, ALIGN=2

                  _SetRotation PROC
;;;42     */
;;;43     static const GUI_ROTATION * _SetRotation(const GUI_ROTATION* pLCD_Api) {
000000  b570              PUSH     {r4-r6,lr}
000002  4604              MOV      r4,r0
;;;44       const GUI_ROTATION * pLCD_ApiOld;
;;;45       GUI_LOCK();
000004  f7fffffe          BL       GUI_Lock
;;;46       pLCD_ApiOld = GUI_pLCD_APIList;
000008  492c              LDR      r1,|L1.188|
00000a  680d              LDR      r5,[r1,#0]  ; GUI_pLCD_APIList
;;;47       if (pLCD_Api) {
;;;48         GUI_Context.pClipRect_HL = NULL;           /* Do not perform high level clipping in rotated mode */
00000c  482c              LDR      r0,|L1.192|
00000e  b114              CBZ      r4,|L1.22|
000010  2200              MOVS     r2,#0
000012  6142              STR      r2,[r0,#0x14]  ; GUI_Context
000014  e001              B        |L1.26|
                  |L1.22|
;;;49       } else {
;;;50         GUI_Context.pClipRect_HL = &GUI_Context.ClipRect;
000016  4a2b              LDR      r2,|L1.196|
000018  6142              STR      r2,[r0,#0x14]  ; GUI_Context
                  |L1.26|
;;;51       }
;;;52       GUI_pLCD_APIList = pLCD_Api;
00001a  600c              STR      r4,[r1,#0]  ; GUI_pLCD_APIList
;;;53       GUI_UNLOCK();
00001c  f7fffffe          BL       GUI_Unlock
;;;54       return pLCD_ApiOld;
000020  4628              MOV      r0,r5
;;;55     }
000022  bd70              POP      {r4-r6,pc}
;;;56     
                          ENDP

                  GUI_DispStringInRectEx PROC
;;;66     */
;;;67     void GUI_DispStringInRectEx(const char GUI_UNI_PTR *s, GUI_RECT* pRect, int TextAlign, int MaxLen, const GUI_ROTATION * pLCD_Api) {
000024  e92d43f0          PUSH     {r4-r9,lr}
000028  b085              SUB      sp,sp,#0x14
00002a  4606              MOV      r6,r0
00002c  9c0c              LDR      r4,[sp,#0x30]
00002e  460d              MOV      r5,r1
000030  4617              MOV      r7,r2
000032  4698              MOV      r8,r3
;;;68       const GUI_ROTATION * pLCD_ApiOld;
;;;69       if (pLCD_Api == GUI_ROTATE_0) {
000034  b3c4              CBZ      r4,|L1.168|
;;;70         /* Do nothing else but calling GUI_DispStringInRectMax if pLCD_Api == GUI_ROTATE_0 */
;;;71         GUI_DispStringInRectMax(s, pRect, TextAlign, MaxLen);
;;;72       } else {
;;;73         #if (!GUI_WINSUPPORT)
;;;74           GUI_RECT Rect_Old;
;;;75         #else
;;;76           const GUI_RECT * pOldClipRect = NULL;
000036  f04f0900          MOV      r9,#0
;;;77         #endif
;;;78         GUI_RECT rClip, rText = {0};
00003a  2000              MOVS     r0,#0
00003c  9000              STR      r0,[sp,#0]
00003e  9001              STR      r0,[sp,#4]
;;;79         GUI_LOCK();
000040  f7fffffe          BL       GUI_Lock
;;;80         /* Set the clip rectangle */
;;;81         if (pRect) {
000044  b1c5              CBZ      r5,|L1.120|
;;;82           rText = *pRect;
000046  6828              LDR      r0,[r5,#0]
000048  9000              STR      r0,[sp,#0]
00004a  686a              LDR      r2,[r5,#4]
00004c  9201              STR      r2,[sp,#4]
;;;83           GUI_RectDispString = rText;
00004e  f8dfc078          LDR      r12,|L1.200|
000052  f8cc0000          STR      r0,[r12,#0]  ; GUI_RectDispString
000056  f8cc2004          STR      r2,[r12,#4]  ; GUI_RectDispString
;;;84           #if (GUI_WINSUPPORT)
;;;85             pOldClipRect = WM_SetUserClipRect(pRect);
00005a  4628              MOV      r0,r5
00005c  f7fffffe          BL       WM_SetUserClipRect
000060  4681              MOV      r9,r0
;;;86             if (pOldClipRect) {
000062  f1b90f00          CMP      r9,#0
000066  d007              BEQ      |L1.120|
;;;87               GUI__IntersectRects(&rClip, pRect, pOldClipRect);
000068  464a              MOV      r2,r9
00006a  4629              MOV      r1,r5
00006c  a802              ADD      r0,sp,#8
00006e  f7fffffe          BL       GUI__IntersectRects
;;;88               WM_SetUserClipRect(&rClip);
000072  a802              ADD      r0,sp,#8
000074  f7fffffe          BL       WM_SetUserClipRect
                  |L1.120|
;;;89             }
;;;90           #else
;;;91             Rect_Old = GUI_Context.ClipRect;
;;;92             GUI__IntersectRects(&rClip, pRect, &Rect_Old);
;;;93             LCD_SetClipRectEx(&rClip);
;;;94           #endif
;;;95         }
;;;96         pLCD_ApiOld = _SetRotation(pLCD_Api);                /* Set the new function pointer for rotating text */
000078  4620              MOV      r0,r4
00007a  f7fffffe          BL       _SetRotation
00007e  4605              MOV      r5,r0
;;;97         pLCD_Api->pfRect2TextRect(&rText);                   /* Calculate the text rectangle */
000080  6861              LDR      r1,[r4,#4]
000082  4668              MOV      r0,sp
000084  4788              BLX      r1
;;;98         GUI__DispStringInRect(s, &rText, TextAlign, MaxLen); /* Display the string */
000086  4643              MOV      r3,r8
000088  463a              MOV      r2,r7
00008a  4669              MOV      r1,sp
00008c  4630              MOV      r0,r6
00008e  f7fffffe          BL       GUI__DispStringInRect
;;;99         /* Restore old clipping rectangle */
;;;100        #if (GUI_WINSUPPORT)
;;;101          WM_SetUserClipRect(pOldClipRect);
000092  4648              MOV      r0,r9
000094  f7fffffe          BL       WM_SetUserClipRect
;;;102        #else
;;;103          LCD_SetClipRectEx(&Rect_Old);
;;;104        #endif
;;;105        _SetRotation(pLCD_ApiOld);
000098  4628              MOV      r0,r5
00009a  f7fffffe          BL       _SetRotation
;;;106        GUI_UNLOCK();
00009e  f7fffffe          BL       GUI_Unlock
;;;107      }
;;;108    }
0000a2  b005              ADD      sp,sp,#0x14
0000a4  e8bd83f0          POP      {r4-r9,pc}
                  |L1.168|
0000a8  e7ff              B        |L1.170|
                  |L1.170|
0000aa  b005              ADD      sp,sp,#0x14           ;71
0000ac  4643              MOV      r3,r8                 ;71
0000ae  463a              MOV      r2,r7                 ;71
0000b0  4629              MOV      r1,r5                 ;71
0000b2  4630              MOV      r0,r6                 ;71
0000b4  e8bd43f0          POP      {r4-r9,lr}            ;71
0000b8  f7ffbffe          B.W      GUI_DispStringInRectMax
;;;109    
                          ENDP

                  |L1.188|
                          DCD      GUI_pLCD_APIList
                  |L1.192|
                          DCD      GUI_Context
                  |L1.196|
                          DCD      GUI_Context+0x8
                  |L1.200|
                          DCD      ||.data||

                          AREA ||.data||, DATA, ALIGN=1

                  GUI_RectDispString
                          %        8
