; generated by ARM C/C++ Compiler, 4.1 [Build 481]
; commandline ArmCC [--debug -c --asm --interleave -o.\rvmdk\gui_drawfocusrect.o --depend=.\rvmdk\gui_drawfocusrect.d --cpu=Cortex-M3 --apcs=interwork -O1 -Otime -I. -I..\BSP -I..\..\..\..\..\uCOS-II\Ports\arm-cortex-m3\Generic\RealView -I..\..\..\..\..\uCOS-II\Source -I..\..\..\..\..\CPU\ST\STM32\inc -I..\..\..\..\..\uC-CPU -I..\..\..\..\..\uC-CPU\Arm-Cortex-M3\RealView -I..\..\..\..\..\uC-LIB -I..\..\..\..\..\uC-Probe\Target\Plugins\uCOS-II -I..\..\..\..\..\uC-Probe\Target\Communication\Generic\Source -I..\..\..\..\..\uC-Probe\Target\Communication\Generic\RS-232\Ports\ST\STM32 -I..\..\..\..\..\uC-Probe\Target\Communication\Generic\RS-232\Source -I..\..\..\..\..\User\inc -I..\..\..\..\..\uCGUI\Config -I..\..\..\..\..\uCGUI\GUIDemo -I..\..\..\..\..\uCGUI\LCDDriver -I..\..\..\..\..\uCGUI\GUI\AntiAlias -I..\..\..\..\..\uCGUI\GUI\ConvertColor -I..\..\..\..\..\uCGUI\GUI\ConvertMono -I..\..\..\..\..\uCGUI\GUI\Core -I..\..\..\..\..\uCGUI\GUI\Font -I..\..\..\..\..\uCGUI\GUI\LCDDriver -I..\..\..\..\..\uCGUI\GUI\MemDev -I..\..\..\..\..\uCGUI\GUI\MultiLayer -I..\..\..\..\..\uCGUI\GUI\Widget -I..\..\..\..\..\uCGUI\GUI\WM -Id:\Keil-stm32\ARM\INC -Id:\Keil-stm32\ARM\INC\ST\STM32F10x -D__MICROLIB --omf_browse=.\rvmdk\gui_drawfocusrect.crf ..\..\..\..\..\uCGUI\GUI\Core\GUI_DrawFocusRect.c]
                          THUMB

                          AREA ||.text||, CODE, READONLY, ALIGN=2

                  _DrawFocusRect PROC
;;;31     */
;;;32     static void _DrawFocusRect(const GUI_RECT* pr) {
000000  b570              PUSH     {r4-r6,lr}
000002  4604              MOV      r4,r0
;;;33       int i; 
;;;34       for (i = pr->x0; i <= pr->x1; i += 2) {
000004  f9b45000          LDRSH    r5,[r4,#0]
000008  f9b40004          LDRSH    r0,[r4,#4]
00000c  42a8              CMP      r0,r5
00000e  db0e              BLT      |L1.46|
                  |L1.16|
;;;35         LCD_DrawPixel(i, pr->y0);
000010  f9b41002          LDRSH    r1,[r4,#2]
000014  4628              MOV      r0,r5
000016  f7fffffe          BL       LCD_DrawPixel
;;;36         LCD_DrawPixel(i, pr->y1);
00001a  f9b41006          LDRSH    r1,[r4,#6]
00001e  4628              MOV      r0,r5
000020  f7fffffe          BL       LCD_DrawPixel
000024  1cad              ADDS     r5,r5,#2              ;34
000026  f9b40004          LDRSH    r0,[r4,#4]            ;34
00002a  42a8              CMP      r0,r5                 ;34
00002c  daf0              BGE      |L1.16|
                  |L1.46|
;;;37       }
;;;38       for (i = pr->y0; i <= pr->y1; i += 2) {
00002e  f9b45002          LDRSH    r5,[r4,#2]
000032  f9b40006          LDRSH    r0,[r4,#6]
000036  42a8              CMP      r0,r5
000038  db0e              BLT      |L1.88|
                  |L1.58|
;;;39         LCD_DrawPixel(pr->x0, i);
00003a  f9b40000          LDRSH    r0,[r4,#0]
00003e  4629              MOV      r1,r5
000040  f7fffffe          BL       LCD_DrawPixel
;;;40         LCD_DrawPixel(pr->x1, i);
000044  f9b40004          LDRSH    r0,[r4,#4]
000048  4629              MOV      r1,r5
00004a  f7fffffe          BL       LCD_DrawPixel
00004e  1cad              ADDS     r5,r5,#2              ;38
000050  f9b40006          LDRSH    r0,[r4,#6]            ;38
000054  42a8              CMP      r0,r5                 ;38
000056  daf0              BGE      |L1.58|
                  |L1.88|
;;;41       }
;;;42     }
000058  bd70              POP      {r4-r6,pc}
;;;43     /*********************************************************************
                          ENDP

                  GUI_DrawFocusRect PROC
;;;52     */
;;;53     void GUI_DrawFocusRect(const GUI_RECT *pRect, int Dist) {
00005a  b500              PUSH     {lr}
00005c  b083              SUB      sp,sp,#0xc
;;;54       GUI_RECT r;
;;;55       GUI__ReduceRect(&r, pRect, Dist);
00005e  460a              MOV      r2,r1
000060  4601              MOV      r1,r0
000062  4668              MOV      r0,sp
000064  f7fffffe          BL       GUI__ReduceRect
;;;56       GUI_LOCK();
000068  f7fffffe          BL       GUI_Lock
;;;57       #if (GUI_WINSUPPORT)
;;;58         WM_ADDORG(r.x0, r.y0);
00006c  4812              LDR      r0,|L1.184|
00006e  f8bd2000          LDRH     r2,[sp,#0]
000072  6c41              LDR      r1,[r0,#0x44]  ; GUI_Context
000074  440a              ADD      r2,r2,r1
000076  f8ad2000          STRH     r2,[sp,#0]
00007a  f8bd2002          LDRH     r2,[sp,#2]
00007e  6c80              LDR      r0,[r0,#0x48]  ; GUI_Context
000080  4402              ADD      r2,r2,r0
000082  f8ad2002          STRH     r2,[sp,#2]
;;;59         WM_ADDORG(r.x1, r.y1);
000086  f8bd2004          LDRH     r2,[sp,#4]
00008a  4411              ADD      r1,r1,r2
00008c  f8ad1004          STRH     r1,[sp,#4]
000090  f8bd1006          LDRH     r1,[sp,#6]
000094  4408              ADD      r0,r0,r1
000096  f8ad0006          STRH     r0,[sp,#6]
;;;60         WM_ITERATE_START(&r); {
00009a  4668              MOV      r0,sp
00009c  f7fffffe          BL       WM__InitIVRSearch
0000a0  b130              CBZ      r0,|L1.176|
                  |L1.162|
;;;61       #endif
;;;62         _DrawFocusRect(&r);
0000a2  4668              MOV      r0,sp
0000a4  f7fffffe          BL       _DrawFocusRect
;;;63       #if (GUI_WINSUPPORT)
;;;64         } WM_ITERATE_END();
0000a8  f7fffffe          BL       WM__GetNextIVR
0000ac  2800              CMP      r0,#0
0000ae  d1f8              BNE      |L1.162|
                  |L1.176|
;;;65       #endif
;;;66       GUI_UNLOCK();
0000b0  f7fffffe          BL       GUI_Unlock
;;;67     }
0000b4  b003              ADD      sp,sp,#0xc
0000b6  bd00              POP      {pc}
;;;68     
                          ENDP

                  |L1.184|
                          DCD      GUI_Context
