; generated by ARM C/C++ Compiler, 4.1 [Build 481]
; commandline ArmCC [--debug -c --asm --interleave -o.\rvmdk\guichar.o --depend=.\rvmdk\guichar.d --cpu=Cortex-M3 --apcs=interwork -O1 -Otime -I. -I..\BSP -I..\..\..\..\..\uCOS-II\Ports\arm-cortex-m3\Generic\RealView -I..\..\..\..\..\uCOS-II\Source -I..\..\..\..\..\CPU\ST\STM32\inc -I..\..\..\..\..\uC-CPU -I..\..\..\..\..\uC-CPU\Arm-Cortex-M3\RealView -I..\..\..\..\..\uC-LIB -I..\..\..\..\..\uC-Probe\Target\Plugins\uCOS-II -I..\..\..\..\..\uC-Probe\Target\Communication\Generic\Source -I..\..\..\..\..\uC-Probe\Target\Communication\Generic\RS-232\Ports\ST\STM32 -I..\..\..\..\..\uC-Probe\Target\Communication\Generic\RS-232\Source -I..\..\..\..\..\User\inc -I..\..\..\..\..\uCGUI\Config -I..\..\..\..\..\uCGUI\GUIDemo -I..\..\..\..\..\uCGUI\LCDDriver -I..\..\..\..\..\uCGUI\GUI\AntiAlias -I..\..\..\..\..\uCGUI\GUI\ConvertColor -I..\..\..\..\..\uCGUI\GUI\ConvertMono -I..\..\..\..\..\uCGUI\GUI\Core -I..\..\..\..\..\uCGUI\GUI\Font -I..\..\..\..\..\uCGUI\GUI\LCDDriver -I..\..\..\..\..\uCGUI\GUI\MemDev -I..\..\..\..\..\uCGUI\GUI\MultiLayer -I..\..\..\..\..\uCGUI\GUI\Widget -I..\..\..\..\..\uCGUI\GUI\WM -Id:\Keil-stm32\ARM\INC -Id:\Keil-stm32\ARM\INC\ST\STM32F10x -D__MICROLIB --omf_browse=.\rvmdk\guichar.crf ..\..\..\..\..\uCGUI\GUI\Core\GUIChar.c]
                          THUMB

                          AREA ||.text||, CODE, READONLY, ALIGN=2

                  GUI_GetFontDistY PROC
;;;90     */
;;;91     int GUI_GetFontDistY(void) {
000000  b510              PUSH     {r4,lr}
;;;92       int r;
;;;93       GUI_LOCK();
000002  f7fffffe          BL       GUI_Lock
;;;94       r = GUI_Context.pAFont->YDist;
000006  482e              LDR      r0,|L1.192|
000008  69c0              LDR      r0,[r0,#0x1c]  ; GUI_Context
00000a  7d44              LDRB     r4,[r0,#0x15]
;;;95       GUI_UNLOCK();
00000c  f7fffffe          BL       GUI_Unlock
;;;96       return r;
000010  4620              MOV      r0,r4
;;;97     }
000012  bd10              POP      {r4,pc}
;;;98     
                          ENDP

                  GUI_DispNextLine PROC
;;;33     */
;;;34     void GUI_DispNextLine(void) {
000014  b510              PUSH     {r4,lr}
;;;35       GUI_LOCK();
000016  f7fffffe          BL       GUI_Lock
;;;36       GUI_Context.DispPosY += GUI_GetFontDistY();
00001a  f7fffffe          BL       GUI_GetFontDistY
00001e  4928              LDR      r1,|L1.192|
000020  8d0a              LDRH     r2,[r1,#0x28]  ; GUI_Context
000022  4410              ADD      r0,r0,r2
000024  8508              STRH     r0,[r1,#0x28]
;;;37       GUI_Context.DispPosX  = GUI_Context.LBorder;
000026  8c88              LDRH     r0,[r1,#0x24]  ; GUI_Context
000028  84c8              STRH     r0,[r1,#0x26]
;;;38       GUI_UNLOCK();
00002a  e8bd4010          POP      {r4,lr}
00002e  f7ffbffe          B.W      GUI_Unlock
;;;39     }
;;;40     
                          ENDP

                  GL_DispChar PROC
;;;44     */
;;;45     void GL_DispChar(U16 c) {
000032  b510              PUSH     {r4,lr}
000034  4604              MOV      r4,r0
;;;46       /* check for control characters */
;;;47       if (c == '\n') {
000036  2c0a              CMP      r4,#0xa
000038  d011              BEQ      |L1.94|
;;;48         GUI_DispNextLine();
;;;49       } else {
;;;50         if (c != '\r') {
00003a  2c0d              CMP      r4,#0xd
00003c  d012              BEQ      |L1.100|
;;;51           GUI_LOCK();
00003e  f7fffffe          BL       GUI_Lock
;;;52           GUI_Context.pAFont->pfDispChar(c);
000042  481f              LDR      r0,|L1.192|
000044  69c0              LDR      r0,[r0,#0x1c]  ; GUI_Context
000046  6801              LDR      r1,[r0,#0]
000048  4620              MOV      r0,r4
00004a  4788              BLX      r1
;;;53           if (GUI_pfDispCharStyle) {
00004c  481d              LDR      r0,|L1.196|
00004e  6801              LDR      r1,[r0,#0]  ; GUI_pfDispCharStyle
000050  b109              CBZ      r1,|L1.86|
;;;54             GUI_pfDispCharStyle(c);
000052  4620              MOV      r0,r4
000054  4788              BLX      r1
                  |L1.86|
;;;55           }
;;;56           GUI_UNLOCK();
000056  e8bd4010          POP      {r4,lr}
00005a  f7ffbffe          B.W      GUI_Unlock
                  |L1.94|
00005e  e8bd4010          POP      {r4,lr}               ;48
000062  e7fe              B        GUI_DispNextLine
                  |L1.100|
;;;57         }
;;;58       }
;;;59     }
000064  bd10              POP      {r4,pc}
;;;60     
                          ENDP

                  GUI_GetYAdjust PROC
;;;69     */
;;;70     int GUI_GetYAdjust(void) {
000066  b510              PUSH     {r4,lr}
;;;71       int r = 0;
000068  2400              MOVS     r4,#0
;;;72       GUI_LOCK();
00006a  f7fffffe          BL       GUI_Lock
;;;73       switch (GUI_Context.TextAlign & GUI_TA_VERTICAL) {
00006e  4914              LDR      r1,|L1.192|
000070  8e08              LDRH     r0,[r1,#0x30]  ; GUI_Context
000072  f000000c          AND      r0,r0,#0xc
000076  2804              CMP      r0,#4
000078  d004              BEQ      |L1.132|
00007a  2808              CMP      r0,#8
00007c  d00a              BEQ      |L1.148|
00007e  280c              CMP      r0,#0xc
000080  d10b              BNE      |L1.154|
000082  e003              B        |L1.140|
                  |L1.132|
;;;74     	case GUI_TA_BOTTOM:
;;;75     		r = GUI_Context.pAFont->YSize - 1;
000084  69c8              LDR      r0,[r1,#0x1c]  ; GUI_Context
000086  7d00              LDRB     r0,[r0,#0x14]
000088  1e44              SUBS     r4,r0,#1
;;;76         break;
00008a  e006              B        |L1.154|
                  |L1.140|
;;;77     	case GUI_TA_VCENTER:
;;;78     		r = GUI_Context.pAFont->YSize / 2;
00008c  69c8              LDR      r0,[r1,#0x1c]  ; GUI_Context
00008e  7d00              LDRB     r0,[r0,#0x14]
000090  0844              LSRS     r4,r0,#1
;;;79         break;
000092  e002              B        |L1.154|
                  |L1.148|
;;;80     	case GUI_TA_BASELINE:
;;;81     		r = GUI_Context.pAFont->YSize / 2;
000094  69c8              LDR      r0,[r1,#0x1c]  ; GUI_Context
000096  7d00              LDRB     r0,[r0,#0x14]
000098  0844              LSRS     r4,r0,#1
                  |L1.154|
;;;82     	}
;;;83       GUI_UNLOCK();
00009a  f7fffffe          BL       GUI_Unlock
;;;84       return r;
00009e  4620              MOV      r0,r4
;;;85     }
0000a0  bd10              POP      {r4,pc}
;;;86     
                          ENDP

                  GUI_GetCharDistX PROC
;;;102    */
;;;103    int GUI_GetCharDistX(U16 c) {
0000a2  b510              PUSH     {r4,lr}
0000a4  4604              MOV      r4,r0
;;;104      int r;
;;;105      GUI_LOCK();
0000a6  f7fffffe          BL       GUI_Lock
;;;106      r = GUI_Context.pAFont->pfGetCharDistX(c);
0000aa  4905              LDR      r1,|L1.192|
0000ac  4620              MOV      r0,r4
0000ae  69c9              LDR      r1,[r1,#0x1c]  ; GUI_Context
0000b0  6849              LDR      r1,[r1,#4]
0000b2  4788              BLX      r1
0000b4  4604              MOV      r4,r0
;;;107      GUI_UNLOCK();
0000b6  f7fffffe          BL       GUI_Unlock
;;;108      return r;
0000ba  4620              MOV      r0,r4
;;;109    }
0000bc  bd10              POP      {r4,pc}
;;;110    
                          ENDP

0000be  0000              DCW      0x0000
                  |L1.192|
                          DCD      GUI_Context
                  |L1.196|
                          DCD      GUI_pfDispCharStyle
