; generated by ARM C/C++ Compiler, 4.1 [Build 481]
; commandline ArmCC [--debug -c --asm --interleave -o.\rvmdk\guidemo_colorbar.o --depend=.\rvmdk\guidemo_colorbar.d --cpu=Cortex-M3 --apcs=interwork -O1 -Otime -I. -I..\BSP -I..\..\..\..\..\uCOS-II\Ports\arm-cortex-m3\Generic\RealView -I..\..\..\..\..\uCOS-II\Source -I..\..\..\..\..\CPU\ST\STM32\inc -I..\..\..\..\..\uC-CPU -I..\..\..\..\..\uC-CPU\Arm-Cortex-M3\RealView -I..\..\..\..\..\uC-LIB -I..\..\..\..\..\uC-Probe\Target\Plugins\uCOS-II -I..\..\..\..\..\uC-Probe\Target\Communication\Generic\Source -I..\..\..\..\..\uC-Probe\Target\Communication\Generic\RS-232\Ports\ST\STM32 -I..\..\..\..\..\uC-Probe\Target\Communication\Generic\RS-232\Source -I..\..\..\..\..\User\inc -I..\..\..\..\..\uCGUI\Config -I..\..\..\..\..\uCGUI\GUIDemo -I..\..\..\..\..\uCGUI\LCDDriver -I..\..\..\..\..\uCGUI\GUI\AntiAlias -I..\..\..\..\..\uCGUI\GUI\ConvertColor -I..\..\..\..\..\uCGUI\GUI\ConvertMono -I..\..\..\..\..\uCGUI\GUI\Core -I..\..\..\..\..\uCGUI\GUI\Font -I..\..\..\..\..\uCGUI\GUI\LCDDriver -I..\..\..\..\..\uCGUI\GUI\MemDev -I..\..\..\..\..\uCGUI\GUI\MultiLayer -I..\..\..\..\..\uCGUI\GUI\Widget -I..\..\..\..\..\uCGUI\GUI\WM -Id:\Keil-stm32\ARM\INC -Id:\Keil-stm32\ARM\INC\ST\STM32F10x -D__MICROLIB --omf_browse=.\rvmdk\guidemo_colorbar.crf ..\..\..\..\..\uCGUI\GUIDemo\GUIDEMO_ColorBar.c]
                          THUMB

                          AREA ||.text||, CODE, READONLY, ALIGN=2

                  GUIDEMO_ShowColorBar PROC
;;;33     
;;;34     void GUIDEMO_ShowColorBar(void) {
000000  e92d4ff0          PUSH     {r4-r11,lr}
000004  b08d              SUB      sp,sp,#0x34
;;;35       int nBars = 13;
000006  240d              MOVS     r4,#0xd
;;;36       int YSize = LCD_GetYSize();
000008  f7fffffe          BL       LCD_GetYSize
;;;37       int y0 = 70; 
00000c  2546              MOVS     r5,#0x46
;;;38       int yStep = (YSize - y0 - (YSize < 320 ? 0 : 60)) / nBars;
00000e  f1a00146          SUB      r1,r0,#0x46
000012  f5b07fa0          CMP      r0,#0x140
000016  da01              BGE      |L1.28|
000018  2000              MOVS     r0,#0
00001a  e000              B        |L1.30|
                  |L1.28|
00001c  203c              MOVS     r0,#0x3c
                  |L1.30|
00001e  1a08              SUBS     r0,r1,r0
000020  fb90f4f4          SDIV     r4,r0,r4
;;;39       int i;
;;;40       int x0 = 60;
000024  203c              MOVS     r0,#0x3c
000026  9001              STR      r0,[sp,#4]
;;;41       int NumColors = LCD_GetDevCap(LCD_DEVCAP_NUMCOLORS);
000028  2000              MOVS     r0,#0
00002a  f7fffffe          BL       LCD_GetDevCap
00002e  4606              MOV      r6,r0
;;;42       int xsize = LCD_GetDevCap(LCD_DEVCAP_XSIZE);
000030  2001              MOVS     r0,#1
000032  f7fffffe          BL       LCD_GetDevCap
;;;43     	xsize -=x0;
000036  f1a0083c          SUB      r8,r0,#0x3c
;;;44       GUIDEMO_ShowIntro("Color bar",
00003a  499b              LDR      r1,|L1.680|
00003c  a09b              ADR      r0,|L1.684|
00003e  f7fffffe          BL       GUIDEMO_ShowIntro
;;;45                         "uC/GUI integrated color"
;;;46                         "\nmanagement always find the"
;;;47                         "\nbest available color for any"
;;;48     					"\nlogical color");
;;;49       GUI_SetColor(GUI_WHITE);
000042  f06f407f          MVN      r0,#0xff000000
000046  f7fffffe          BL       GUI_SetColor
;;;50       GUI_SetBkColor(GUI_BLACK); 
00004a  2000              MOVS     r0,#0
00004c  f7fffffe          BL       GUI_SetBkColor
;;;51       GUI_Clear();
000050  f7fffffe          BL       GUI_Clear
;;;52     	GUI_SetFont(&GUI_Font8x16);
000054  4898              LDR      r0,|L1.696|
000056  f7fffffe          BL       GUI_SetFont
;;;53     	GUI_DispString("Color bars\n");
00005a  a098              ADR      r0,|L1.700|
00005c  f7fffffe          BL       GUI_DispString
;;;54     	GUI_SetFont(&GUI_Font8_ASCII);
000060  4899              LDR      r0,|L1.712|
000062  f7fffffe          BL       GUI_SetFont
;;;55       #ifdef LCD_CONTROLLER
;;;56         GUI_DispString("\nLCD_CONTROLLER: ");
000066  a099              ADR      r0,|L1.716|
000068  f7fffffe          BL       GUI_DispString
;;;57         GUI_DispDecMin(LCD_CONTROLLER);
00006c  f04f30ff          MOV      r0,#0xffffffff
000070  f7fffffe          BL       GUI_DispDecMin
;;;58         GUI_DispString("\n");
000074  a09a              ADR      r0,|L1.736|
000076  f7fffffe          BL       GUI_DispString
;;;59       #endif
;;;60       GUI_DispDecMin(LCD_BITSPERPIXEL);
00007a  2010              MOVS     r0,#0x10
00007c  f7fffffe          BL       GUI_DispDecMin
;;;61       GUI_DispString(" bpp");
000080  a098              ADR      r0,|L1.740|
000082  f7fffffe          BL       GUI_DispString
;;;62       #ifdef LCD_BUSWIDTH
;;;63         GUI_DispString(", ");
;;;64         GUI_DispDecMin(LCD_BUSWIDTH);
;;;65         GUI_DispString(" bit bus");
;;;66       #endif
;;;67       GUI_DispString(", ");
000086  a099              ADR      r0,|L1.748|
000088  f7fffffe          BL       GUI_DispString
;;;68       GUI_DispDecMin(NumColors);
00008c  4630              MOV      r0,r6
00008e  f7fffffe          BL       GUI_DispDecMin
;;;69       GUI_DispString(" colors\n");
000092  a097              ADR      r0,|L1.752|
000094  f7fffffe          BL       GUI_DispString
;;;70       #if (LCD_FIXEDPALETTE) 
;;;71         GUI_DispString("Fixed palette: ");
000098  a098              ADR      r0,|L1.764|
00009a  f7fffffe          BL       GUI_DispString
;;;72         GUI_DispDecMin(LCD_FIXEDPALETTE);
00009e  f2402035          MOV      r0,#0x235
0000a2  f7fffffe          BL       GUI_DispDecMin
;;;73       #else
;;;74         GUI_DispString("(Custom)");
;;;75       #endif
;;;76       GUI_SetFont(&GUI_Font8x8);
0000a6  4899              LDR      r0,|L1.780|
0000a8  f7fffffe          BL       GUI_SetFont
;;;77       GUI_SetColor(GUI_WHITE);
0000ac  f06f407f          MVN      r0,#0xff000000
0000b0  f7fffffe          BL       GUI_SetColor
;;;78       GUI_DispStringAt("Red",     0, y0 +      yStep);
0000b4  f1040246          ADD      r2,r4,#0x46
0000b8  2100              MOVS     r1,#0
0000ba  a095              ADR      r0,|L1.784|
0000bc  f7fffffe          BL       GUI_DispStringAt
;;;79       GUI_DispStringAt("Green",   0, y0 + 3  * yStep);
0000c0  eb040744          ADD      r7,r4,r4,LSL #1
0000c4  f1070246          ADD      r2,r7,#0x46
0000c8  2100              MOVS     r1,#0
0000ca  a092              ADR      r0,|L1.788|
0000cc  f7fffffe          BL       GUI_DispStringAt
;;;80       GUI_DispStringAt("Blue",    0, y0 + 5  * yStep);
0000d0  eb040b84          ADD      r11,r4,r4,LSL #2
0000d4  f10b0246          ADD      r2,r11,#0x46
0000d8  2100              MOVS     r1,#0
0000da  a090              ADR      r0,|L1.796|
0000dc  f7fffffe          BL       GUI_DispStringAt
;;;81       GUI_DispStringAt("Grey",    0, y0 + 6  * yStep);
0000e0  eb050947          ADD      r9,r5,r7,LSL #1
0000e4  464a              MOV      r2,r9
0000e6  2100              MOVS     r1,#0
0000e8  a08e              ADR      r0,|L1.804|
0000ea  f7fffffe          BL       GUI_DispStringAt
;;;82       GUI_DispStringAt("Yellow",  0, y0 + 8  * yStep);
0000ee  eb050ac4          ADD      r10,r5,r4,LSL #3
0000f2  4652              MOV      r2,r10
0000f4  2100              MOVS     r1,#0
0000f6  a08d              ADR      r0,|L1.812|
0000f8  f7fffffe          BL       GUI_DispStringAt
;;;83       GUI_DispStringAt("Cyan",    0, y0 + 10 * yStep);
0000fc  eb05024b          ADD      r2,r5,r11,LSL #1
000100  2100              MOVS     r1,#0
000102  a08c              ADR      r0,|L1.820|
000104  920c              STR      r2,[sp,#0x30]
000106  f7fffffe          BL       GUI_DispStringAt
;;;84       GUI_DispStringAt("Magenta", 0, y0 + 12 * yStep);
00010a  eb050287          ADD      r2,r5,r7,LSL #2
00010e  2100              MOVS     r1,#0
000110  a08a              ADR      r0,|L1.828|
000112  920b              STR      r2,[sp,#0x2c]
000114  f7fffffe          BL       GUI_DispStringAt
;;;85       for (i = 0; (i < xsize) && !GUIDEMO_CheckCancel(); i++) {
000118  2600              MOVS     r6,#0
;;;86         U16 cs = (255 * (U32)i) / xsize;
;;;87         U16 x = x0 + i;;
;;;88     /* Red */
;;;89         GUI_SetColor(cs);
;;;90         GUI_DrawVLine(x, y0, y0 + yStep - 1);
;;;91         GUI_SetColor(0x0000ff + (255 - cs) * 0x10100L);
;;;92         GUI_DrawVLine(x, y0 + yStep, y0 + 2 * yStep - 1);
;;;93     /* Green */
;;;94         GUI_SetColor(cs<<8);
;;;95         GUI_DrawVLine(x, y0 + 2 * yStep, y0 + 3 * yStep - 1);
;;;96         GUI_SetColor(0x00ff00 + (255 - cs) * 0x10001L);
;;;97         GUI_DrawVLine(x, y0 + 3 * yStep, y0 + 4 * yStep - 1);
;;;98     /* Blue */
;;;99         GUI_SetColor(cs * 0x10000L);
;;;100        GUI_DrawVLine(x, y0 + 4 * yStep, y0 + 5 * yStep - 1);
;;;101        GUI_SetColor(0xff0000 + (255 - cs) * 0x00101L);
;;;102        GUI_DrawVLine(x, y0 + 5 * yStep, y0 + 6 * yStep - 1);
;;;103    /* Gray */
;;;104        GUI_SetColor(cs * 0x10101L);
;;;105        GUI_DrawVLine(x, y0 + 6 * yStep, y0 + 7 * yStep - 1);
;;;106    /* Yellow */
;;;107        GUI_SetColor(cs * 0x00101L);
;;;108        GUI_DrawVLine(x, y0 + 7 * yStep, y0 + 8 * yStep - 1);
;;;109        GUI_SetColor(0x00ffff + (255 - cs) * 0x10000L);
;;;110        GUI_DrawVLine(x, y0 + 8 * yStep, y0 + 9 * yStep - 1);
;;;111    /* Cyan */
;;;112        GUI_SetColor(cs * 0x10100L);
;;;113        GUI_DrawVLine(x, y0 + 9 * yStep, y0 + 10 * yStep - 1);
;;;114        GUI_SetColor(0xffff00 + (255 - cs) * 0x00001L);
;;;115        GUI_DrawVLine(x, y0 + 10 * yStep, y0 + 11 * yStep - 1);
;;;116    /* Magenta */
;;;117        GUI_SetColor(cs * 0x10001L);
;;;118        GUI_DrawVLine(x, y0 + 11 * yStep, y0 + 12 * yStep - 1);
;;;119        GUI_SetColor(0xff00ff + (255 - cs) * 0x00100L);
;;;120        GUI_DrawVLine(x, y0 + 12 * yStep, y0 + 13 * yStep - 1);
00011a  eb040084          ADD      r0,r4,r4,LSL #2
00011e  eb0000c4          ADD      r0,r0,r4,LSL #3
000122  4428              ADD      r0,r0,r5
000124  900a              STR      r0,[sp,#0x28]         ;115
000126  eb040044          ADD      r0,r4,r4,LSL #1       ;115
00012a  eb0000c4          ADD      r0,r0,r4,LSL #3       ;115
00012e  4428              ADD      r0,r0,r5              ;115
000130  9009              STR      r0,[sp,#0x24]         ;110
000132  eb0400c4          ADD      r0,r4,r4,LSL #3       ;110
000136  4428              ADD      r0,r0,r5              ;110
000138  9008              STR      r0,[sp,#0x20]         ;105
00013a  ebc400c4          RSB      r0,r4,r4,LSL #3       ;105
00013e  4428              ADD      r0,r0,r5              ;105
000140  9007              STR      r0,[sp,#0x1c]         ;100
000142  eb0b0005          ADD      r0,r11,r5             ;100
000146  9006              STR      r0,[sp,#0x18]         ;97
000148  eb050084          ADD      r0,r5,r4,LSL #2       ;97
00014c  9005              STR      r0,[sp,#0x14]         ;95
00014e  1978              ADDS     r0,r7,r5              ;95
000150  9004              STR      r0,[sp,#0x10]         ;92
000152  eb050044          ADD      r0,r5,r4,LSL #1       ;92
000156  9003              STR      r0,[sp,#0xc]          ;90
000158  1928              ADDS     r0,r5,r4              ;90
00015a  9002              STR      r0,[sp,#8]            ;85
00015c  e097              B        |L1.654|
                  |L1.350|
00015e  ebc62006          RSB      r0,r6,r6,LSL #8       ;86
000162  fbb0f0f8          UDIV     r0,r0,r8              ;86
000166  b284              UXTH     r4,r0                 ;86
000168  9801              LDR      r0,[sp,#4]            ;87
00016a  4430              ADD      r0,r0,r6              ;87
00016c  b280              UXTH     r0,r0                 ;87
00016e  9000              STR      r0,[sp,#0]            ;87
000170  4620              MOV      r0,r4                 ;89
000172  f7fffffe          BL       GUI_SetColor
000176  9802              LDR      r0,[sp,#8]            ;90
000178  4629              MOV      r1,r5                 ;90
00017a  1e42              SUBS     r2,r0,#1              ;90
00017c  9800              LDR      r0,[sp,#0]            ;90
00017e  f7fffffe          BL       GUI_DrawVLine
000182  f1c407ff          RSB      r7,r4,#0xff           ;91
000186  eb072b07          ADD      r11,r7,r7,LSL #8      ;91
00018a  20ff              MOVS     r0,#0xff              ;91
00018c  eb00200b          ADD      r0,r0,r11,LSL #8      ;91
000190  f7fffffe          BL       GUI_SetColor
000194  9803              LDR      r0,[sp,#0xc]          ;92
000196  9902              LDR      r1,[sp,#8]            ;92
000198  1e42              SUBS     r2,r0,#1              ;92
00019a  9800              LDR      r0,[sp,#0]            ;92
00019c  f7fffffe          BL       GUI_DrawVLine
0001a0  0220              LSLS     r0,r4,#8              ;94
0001a2  f7fffffe          BL       GUI_SetColor
0001a6  9804              LDR      r0,[sp,#0x10]         ;95
0001a8  9903              LDR      r1,[sp,#0xc]          ;95
0001aa  1e42              SUBS     r2,r0,#1              ;95
0001ac  9800              LDR      r0,[sp,#0]            ;95
0001ae  f7fffffe          BL       GUI_DrawVLine
0001b2  eb074007          ADD      r0,r7,r7,LSL #16      ;96
0001b6  f500407f          ADD      r0,r0,#0xff00         ;96
0001ba  f7fffffe          BL       GUI_SetColor
0001be  9805              LDR      r0,[sp,#0x14]         ;97
0001c0  9904              LDR      r1,[sp,#0x10]         ;97
0001c2  1e42              SUBS     r2,r0,#1              ;97
0001c4  9800              LDR      r0,[sp,#0]            ;97
0001c6  f7fffffe          BL       GUI_DrawVLine
0001ca  0420              LSLS     r0,r4,#16             ;99
0001cc  f7fffffe          BL       GUI_SetColor
0001d0  9806              LDR      r0,[sp,#0x18]         ;100
0001d2  9905              LDR      r1,[sp,#0x14]         ;100
0001d4  1e42              SUBS     r2,r0,#1              ;100
0001d6  9800              LDR      r0,[sp,#0]            ;100
0001d8  f7fffffe          BL       GUI_DrawVLine
0001dc  f50b007f          ADD      r0,r11,#0xff0000      ;101
0001e0  f7fffffe          BL       GUI_SetColor
0001e4  f1a90201          SUB      r2,r9,#1              ;102
0001e8  9906              LDR      r1,[sp,#0x18]         ;102
0001ea  9800              LDR      r0,[sp,#0]            ;102
0001ec  f7fffffe          BL       GUI_DrawVLine
0001f0  eb042004          ADD      r0,r4,r4,LSL #8       ;104
0001f4  eb004004          ADD      r0,r0,r4,LSL #16      ;104
0001f8  f7fffffe          BL       GUI_SetColor
0001fc  9807              LDR      r0,[sp,#0x1c]         ;105
0001fe  4649              MOV      r1,r9                 ;105
000200  1e42              SUBS     r2,r0,#1              ;105
000202  9800              LDR      r0,[sp,#0]            ;105
000204  f7fffffe          BL       GUI_DrawVLine
000208  eb042004          ADD      r0,r4,r4,LSL #8       ;107
00020c  f7fffffe          BL       GUI_SetColor
000210  f1aa0201          SUB      r2,r10,#1             ;108
000214  9907              LDR      r1,[sp,#0x1c]         ;108
000216  9800              LDR      r0,[sp,#0]            ;108
000218  f7fffffe          BL       GUI_DrawVLine
00021c  f64f70ff          MOV      r0,#0xffff            ;109
000220  eb004007          ADD      r0,r0,r7,LSL #16      ;109
000224  f7fffffe          BL       GUI_SetColor
000228  9808              LDR      r0,[sp,#0x20]         ;110
00022a  4651              MOV      r1,r10                ;110
00022c  1e42              SUBS     r2,r0,#1              ;110
00022e  9800              LDR      r0,[sp,#0]            ;110
000230  f7fffffe          BL       GUI_DrawVLine
000234  eb042004          ADD      r0,r4,r4,LSL #8       ;112
000238  0200              LSLS     r0,r0,#8              ;112
00023a  f7fffffe          BL       GUI_SetColor
00023e  980c              LDR      r0,[sp,#0x30]         ;113
000240  9908              LDR      r1,[sp,#0x20]         ;113
000242  1e42              SUBS     r2,r0,#1              ;113
000244  9800              LDR      r0,[sp,#0]            ;113
000246  f7fffffe          BL       GUI_DrawVLine
00024a  f06f407f          MVN      r0,#0xff000000        ;114
00024e  1b00              SUBS     r0,r0,r4              ;114
000250  f7fffffe          BL       GUI_SetColor
000254  9809              LDR      r0,[sp,#0x24]         ;115
000256  990c              LDR      r1,[sp,#0x30]         ;115
000258  1e42              SUBS     r2,r0,#1              ;115
00025a  9800              LDR      r0,[sp,#0]            ;115
00025c  f7fffffe          BL       GUI_DrawVLine
000260  eb044004          ADD      r0,r4,r4,LSL #16      ;117
000264  f7fffffe          BL       GUI_SetColor
000268  980b              LDR      r0,[sp,#0x2c]         ;118
00026a  9909              LDR      r1,[sp,#0x24]         ;118
00026c  1e42              SUBS     r2,r0,#1              ;118
00026e  9800              LDR      r0,[sp,#0]            ;118
000270  f7fffffe          BL       GUI_DrawVLine
000274  f04f10ff          MOV      r0,#0xff00ff          ;119
000278  eb002007          ADD      r0,r0,r7,LSL #8       ;119
00027c  f7fffffe          BL       GUI_SetColor
000280  980a              LDR      r0,[sp,#0x28]
000282  990b              LDR      r1,[sp,#0x2c]
000284  1e42              SUBS     r2,r0,#1
000286  9800              LDR      r0,[sp,#0]
000288  f7fffffe          BL       GUI_DrawVLine
00028c  1c76              ADDS     r6,r6,#1              ;85
                  |L1.654|
00028e  4546              CMP      r6,r8                 ;85
000290  da04              BGE      |L1.668|
000292  f7fffffe          BL       GUIDEMO_CheckCancel
000296  2800              CMP      r0,#0                 ;85
000298  f43faf61          BEQ      |L1.350|
                  |L1.668|
;;;121      }
;;;122      GUIDEMO_Wait();
00029c  b00d              ADD      sp,sp,#0x34
00029e  e8bd4ff0          POP      {r4-r11,lr}
0002a2  f7ffbffe          B.W      GUIDEMO_Wait
;;;123    }
;;;124    
                          ENDP

0002a6  0000              DCW      0x0000
                  |L1.680|
                          DCD      ||.constdata||
                  |L1.684|
0002ac  436f6c6f          DCB      "Color bar",0
0002b0  72206261
0002b4  7200    
0002b6  00                DCB      0
0002b7  00                DCB      0
                  |L1.696|
                          DCD      GUI_Font8x16
                  |L1.700|
0002bc  436f6c6f          DCB      "Color bars\n",0
0002c0  72206261
0002c4  72730a00
                  |L1.712|
                          DCD      GUI_Font8_ASCII
                  |L1.716|
0002cc  0a4c4344          DCB      "\nLCD_CONTROLLER: ",0
0002d0  5f434f4e
0002d4  54524f4c
0002d8  4c45523a
0002dc  2000    
0002de  00                DCB      0
0002df  00                DCB      0
                  |L1.736|
0002e0  0a00              DCB      "\n",0
0002e2  00                DCB      0
0002e3  00                DCB      0
                  |L1.740|
0002e4  20627070          DCB      " bpp",0
0002e8  00      
0002e9  00                DCB      0
0002ea  00                DCB      0
0002eb  00                DCB      0
                  |L1.748|
0002ec  2c2000            DCB      ", ",0
0002ef  00                DCB      0
                  |L1.752|
0002f0  20636f6c          DCB      " colors\n",0
0002f4  6f72730a
0002f8  00      
0002f9  00                DCB      0
0002fa  00                DCB      0
0002fb  00                DCB      0
                  |L1.764|
0002fc  46697865          DCB      "Fixed palette: ",0
000300  64207061
000304  6c657474
000308  653a2000
                  |L1.780|
                          DCD      GUI_Font8x8
                  |L1.784|
000310  52656400          DCB      "Red",0
                  |L1.788|
000314  47726565          DCB      "Green",0
000318  6e00    
00031a  00                DCB      0
00031b  00                DCB      0
                  |L1.796|
00031c  426c7565          DCB      "Blue",0
000320  00      
000321  00                DCB      0
000322  00                DCB      0
000323  00                DCB      0
                  |L1.804|
000324  47726579          DCB      "Grey",0
000328  00      
000329  00                DCB      0
00032a  00                DCB      0
00032b  00                DCB      0
                  |L1.812|
00032c  59656c6c          DCB      "Yellow",0
000330  6f7700  
000333  00                DCB      0
                  |L1.820|
000334  4379616e          DCB      "Cyan",0
000338  00      
000339  00                DCB      0
00033a  00                DCB      0
00033b  00                DCB      0
                  |L1.828|
00033c  4d616765          DCB      "Magenta",0
000340  6e746100

                          AREA ||.constdata||, DATA, READONLY, ALIGN=2

000000  75432f47          DCB      0x75,0x43,0x2f,0x47
000004  55492069          DCB      0x55,0x49,0x20,0x69
000008  6e746567          DCB      0x6e,0x74,0x65,0x67
00000c  72617465          DCB      0x72,0x61,0x74,0x65
000010  6420636f          DCB      0x64,0x20,0x63,0x6f
000014  6c6f720a          DCB      0x6c,0x6f,0x72,0x0a
000018  6d616e61          DCB      0x6d,0x61,0x6e,0x61
00001c  67656d65          DCB      0x67,0x65,0x6d,0x65
000020  6e742061          DCB      0x6e,0x74,0x20,0x61
000024  6c776179          DCB      0x6c,0x77,0x61,0x79
000028  73206669          DCB      0x73,0x20,0x66,0x69
00002c  6e642074          DCB      0x6e,0x64,0x20,0x74
000030  68650a62          DCB      0x68,0x65,0x0a,0x62
000034  65737420          DCB      0x65,0x73,0x74,0x20
000038  61766169          DCB      0x61,0x76,0x61,0x69
00003c  6c61626c          DCB      0x6c,0x61,0x62,0x6c
000040  6520636f          DCB      0x65,0x20,0x63,0x6f
000044  6c6f7220          DCB      0x6c,0x6f,0x72,0x20
000048  666f7220          DCB      0x66,0x6f,0x72,0x20
00004c  616e790a          DCB      0x61,0x6e,0x79,0x0a
000050  6c6f6769          DCB      0x6c,0x6f,0x67,0x69
000054  63616c20          DCB      0x63,0x61,0x6c,0x20
000058  636f6c6f          DCB      0x63,0x6f,0x6c,0x6f
00005c  7200              DCB      0x72,0x00
