; generated by ARM C/C++ Compiler, 4.1 [Build 481]
; commandline ArmCC [--debug -c --asm --interleave -o.\rvmdk\guidev_auto.o --depend=.\rvmdk\guidev_auto.d --cpu=Cortex-M3 --apcs=interwork -O1 -Otime -I. -I..\BSP -I..\..\..\..\..\uCOS-II\Ports\arm-cortex-m3\Generic\RealView -I..\..\..\..\..\uCOS-II\Source -I..\..\..\..\..\CPU\ST\STM32\inc -I..\..\..\..\..\uC-CPU -I..\..\..\..\..\uC-CPU\Arm-Cortex-M3\RealView -I..\..\..\..\..\uC-LIB -I..\..\..\..\..\uC-Probe\Target\Plugins\uCOS-II -I..\..\..\..\..\uC-Probe\Target\Communication\Generic\Source -I..\..\..\..\..\uC-Probe\Target\Communication\Generic\RS-232\Ports\ST\STM32 -I..\..\..\..\..\uC-Probe\Target\Communication\Generic\RS-232\Source -I..\..\..\..\..\User\inc -I..\..\..\..\..\uCGUI\Config -I..\..\..\..\..\uCGUI\GUIDemo -I..\..\..\..\..\uCGUI\LCDDriver -I..\..\..\..\..\uCGUI\GUI\AntiAlias -I..\..\..\..\..\uCGUI\GUI\ConvertColor -I..\..\..\..\..\uCGUI\GUI\ConvertMono -I..\..\..\..\..\uCGUI\GUI\Core -I..\..\..\..\..\uCGUI\GUI\Font -I..\..\..\..\..\uCGUI\GUI\LCDDriver -I..\..\..\..\..\uCGUI\GUI\MemDev -I..\..\..\..\..\uCGUI\GUI\MultiLayer -I..\..\..\..\..\uCGUI\GUI\Widget -I..\..\..\..\..\uCGUI\GUI\WM -Id:\Keil-stm32\ARM\INC -Id:\Keil-stm32\ARM\INC\ST\STM32F10x -D__MICROLIB --omf_browse=.\rvmdk\guidev_auto.crf ..\..\..\..\..\uCGUI\GUI\MemDev\GUIDEV_Auto.c]
                          THUMB

                          AREA ||.text||, CODE, READONLY, ALIGN=1

                  GUI_MEMDEV_CreateAuto PROC
;;;39     */
;;;40     int GUI_MEMDEV_CreateAuto(GUI_AUTODEV* pAutoDev) {
000000  2101              MOVS     r1,#1
;;;41       pAutoDev->FirstCall = 1;
000002  7401              STRB     r1,[r0,#0x10]
;;;42       return 0;
000004  2000              MOVS     r0,#0
;;;43     }
000006  4770              BX       lr
;;;44     
                          ENDP

                  GUI_MEMDEV_DeleteAuto PROC
;;;48     */
;;;49     void GUI_MEMDEV_DeleteAuto(GUI_AUTODEV* pAutoDev) {
000008  4770              BX       lr
;;;50       GUI_USE_PARA(pAutoDev);
;;;51     }
;;;52     
                          ENDP

                  GUI_MEMDEV_DrawAuto PROC
;;;56     */
;;;57     int GUI_MEMDEV_DrawAuto(GUI_AUTODEV* pAutoDev, GUI_AUTODEV_INFO* pAutoDevInfo, GUI_CALLBACK_VOID_P* pfDraw, void* pData) {
00000a  e92d4fff          PUSH     {r0-r11,lr}
00000e  b085              SUB      sp,sp,#0x14
000010  4604              MOV      r4,r0
000012  460d              MOV      r5,r1
000014  4616              MOV      r6,r2
;;;58       GUI_RECT rTemp;
;;;59       GUI_HMEM hMem = GUI_MEASDEV_Create();
000016  f7fffffe          BL       GUI_MEASDEV_Create
00001a  4683              MOV      r11,r0
;;;60       if (!hMem) {
00001c  f1bb0f00          CMP      r11,#0
000020  d01d              BEQ      |L1.94|
;;;61         return 1;
;;;62       }
;;;63       GUI_MEASDEV_Select(hMem);
000022  4658              MOV      r0,r11
000024  f7fffffe          BL       GUI_MEASDEV_Select
;;;64       /* Measure area to draw */
;;;65       if (pAutoDev->FirstCall) {
000028  7c20              LDRB     r0,[r4,#0x10]
00002a  f04f0900          MOV      r9,#0                 ;59
00002e  f04f0a01          MOV      r10,#1                ;61
000032  b1c0              CBZ      r0,|L1.102|
;;;66         /* Measure complete area */
;;;67         pAutoDevInfo->DrawFixed = 1;
000034  f885a000          STRB     r10,[r5,#0]
;;;68         pfDraw(pData);
000038  9808              LDR      r0,[sp,#0x20]
00003a  47b0              BLX      r6
;;;69         GUI_MEASDEV_GetRect(hMem, &pAutoDev->rView);
00003c  4621              MOV      r1,r4
00003e  4658              MOV      r0,r11
000040  f7fffffe          BL       GUI_MEASDEV_GetRect
;;;70         /* Measure variable area only */
;;;71         GUI_MEASDEV_ClearRect(hMem);
000044  4658              MOV      r0,r11
000046  f7fffffe          BL       GUI_MEASDEV_ClearRect
;;;72         pAutoDevInfo->DrawFixed = 0;
00004a  f8859000          STRB     r9,[r5,#0]
;;;73         pfDraw(pData);
00004e  9808              LDR      r0,[sp,#0x20]
000050  47b0              BLX      r6
;;;74         GUI_MEASDEV_GetRect(hMem, &pAutoDev->rPrev);
000052  f1040108          ADD      r1,r4,#8
000056  4658              MOV      r0,r11
000058  f7fffffe          BL       GUI_MEASDEV_GetRect
00005c  e018              B        |L1.144|
                  |L1.94|
;;;75       } else {
;;;76         /* Measure variable area only */
;;;77         pfDraw(pData);
;;;78         GUI_MEASDEV_GetRect(hMem, &pAutoDev->rView);
;;;79         rTemp = pAutoDev->rView;
;;;80         GUI_MergeRect(&pAutoDev->rView, &pAutoDev->rView, &pAutoDev->rPrev);
;;;81         pAutoDev->rPrev = rTemp;
;;;82       }
;;;83       GUI_MEASDEV_Delete(hMem);
;;;84       /* Do the actual drawing */
;;;85       pAutoDevInfo->DrawFixed = 1;
;;;86       if (GUI_MEMDEV_Draw(&pAutoDev->rView, pfDraw, pData, 0, GUI_MEMDEV_NOTRANS)) {
;;;87         return 1;
;;;88       }
;;;89       pAutoDevInfo->DrawFixed = 0;
;;;90       pAutoDev->FirstCall = 0;
;;;91       return 0;
;;;92     }
00005e  b009              ADD      sp,sp,#0x24
000060  2001              MOVS     r0,#1                 ;61
000062  e8bd8ff0          POP      {r4-r11,pc}
                  |L1.102|
000066  9808              LDR      r0,[sp,#0x20]         ;77
000068  47b0              BLX      r6                    ;77
00006a  4621              MOV      r1,r4                 ;78
00006c  4658              MOV      r0,r11                ;78
00006e  f7fffffe          BL       GUI_MEASDEV_GetRect
000072  f8d48000          LDR      r8,[r4,#0]            ;79
000076  f8cd8008          STR      r8,[sp,#8]            ;79
00007a  6867              LDR      r7,[r4,#4]            ;79
00007c  9703              STR      r7,[sp,#0xc]          ;79
00007e  f1040208          ADD      r2,r4,#8              ;80
000082  4621              MOV      r1,r4                 ;80
000084  4620              MOV      r0,r4                 ;80
000086  f7fffffe          BL       GUI_MergeRect
00008a  f8c48008          STR      r8,[r4,#8]            ;81
00008e  60e7              STR      r7,[r4,#0xc]          ;81
                  |L1.144|
000090  4658              MOV      r0,r11                ;83
000092  f7fffffe          BL       GUI_MEASDEV_Delete
000096  f885a000          STRB     r10,[r5,#0]           ;85
00009a  2301              MOVS     r3,#1                 ;86
00009c  9300              STR      r3,[sp,#0]            ;86
00009e  2300              MOVS     r3,#0                 ;86
0000a0  4631              MOV      r1,r6                 ;86
0000a2  4620              MOV      r0,r4                 ;86
0000a4  9a08              LDR      r2,[sp,#0x20]         ;86
0000a6  f7fffffe          BL       GUI_MEMDEV_Draw
0000aa  b118              CBZ      r0,|L1.180|
0000ac  b009              ADD      sp,sp,#0x24
0000ae  2001              MOVS     r0,#1                 ;87
0000b0  e8bd8ff0          POP      {r4-r11,pc}
                  |L1.180|
0000b4  f8859000          STRB     r9,[r5,#0]            ;89
0000b8  f8849010          STRB     r9,[r4,#0x10]         ;90
0000bc  b009              ADD      sp,sp,#0x24
0000be  2000              MOVS     r0,#0                 ;91
0000c0  e8bd8ff0          POP      {r4-r11,pc}
;;;93     
                          ENDP

