; generated by ARM C/C++ Compiler, 4.1 [Build 481]
; commandline ArmCC [--debug -c --asm --interleave -o.\rvmdk\guidemo_wm.o --depend=.\rvmdk\guidemo_wm.d --cpu=Cortex-M3 --apcs=interwork -O1 -Otime -I. -I..\BSP -I..\..\..\..\..\uCOS-II\Ports\arm-cortex-m3\Generic\RealView -I..\..\..\..\..\uCOS-II\Source -I..\..\..\..\..\CPU\ST\STM32\inc -I..\..\..\..\..\uC-CPU -I..\..\..\..\..\uC-CPU\Arm-Cortex-M3\RealView -I..\..\..\..\..\uC-LIB -I..\..\..\..\..\uC-Probe\Target\Plugins\uCOS-II -I..\..\..\..\..\uC-Probe\Target\Communication\Generic\Source -I..\..\..\..\..\uC-Probe\Target\Communication\Generic\RS-232\Ports\ST\STM32 -I..\..\..\..\..\uC-Probe\Target\Communication\Generic\RS-232\Source -I..\..\..\..\..\User\inc -I..\..\..\..\..\uCGUI\Config -I..\..\..\..\..\uCGUI\GUIDemo -I..\..\..\..\..\uCGUI\LCDDriver -I..\..\..\..\..\uCGUI\GUI\AntiAlias -I..\..\..\..\..\uCGUI\GUI\ConvertColor -I..\..\..\..\..\uCGUI\GUI\ConvertMono -I..\..\..\..\..\uCGUI\GUI\Core -I..\..\..\..\..\uCGUI\GUI\Font -I..\..\..\..\..\uCGUI\GUI\LCDDriver -I..\..\..\..\..\uCGUI\GUI\MemDev -I..\..\..\..\..\uCGUI\GUI\MultiLayer -I..\..\..\..\..\uCGUI\GUI\Widget -I..\..\..\..\..\uCGUI\GUI\WM -Id:\Keil-stm32\ARM\INC -Id:\Keil-stm32\ARM\INC\ST\STM32F10x -D__MICROLIB --omf_browse=.\rvmdk\guidemo_wm.crf ..\..\..\..\..\uCGUI\GUIDemo\GUIDEMO_WM.c]
                          THUMB

                          AREA ||.text||, CODE, READONLY, ALIGN=2

                  _ChangeInfoText PROC
;;;72     */
;;;73     static void _ChangeInfoText(char* pStr) {
000000  b500              PUSH     {lr}
000002  b083              SUB      sp,sp,#0xc
;;;74       WM_MESSAGE Message;
;;;75       Message.MsgId  = MSG_CHANGE_TEXT;
000004  f44f6180          MOV      r1,#0x400
000008  9100              STR      r1,[sp,#0]
;;;76       Message.Data.p = pStr;
00000a  9002              STR      r0,[sp,#8]
;;;77       WM_SendMessage(WM_HBKWIN, &Message);
00000c  f7fffffe          BL       WM_GetDesktopWindow
000010  4669              MOV      r1,sp
000012  f7fffffe          BL       WM_SendMessage
;;;78       WM_InvalidateWindow(WM_HBKWIN);
000016  f7fffffe          BL       WM_GetDesktopWindow
00001a  f7fffffe          BL       WM_InvalidateWindow
;;;79     }
00001e  b003              ADD      sp,sp,#0xc
000020  bd00              POP      {pc}
;;;80     
                          ENDP

                  _DrawInfoText PROC
;;;87     */
;;;88     static void _DrawInfoText(char* pStr) {
000022  b510              PUSH     {r4,lr}
000024  4604              MOV      r4,r0
;;;89       GUI_SetColor(GUI_WHITE);
000026  f06f407f          MVN      r0,#0xff000000
00002a  f7fffffe          BL       GUI_SetColor
;;;90       GUI_SetFont(&GUI_Font24_ASCII);
00002e  48f7              LDR      r0,|L1.1036|
000030  f7fffffe          BL       GUI_SetFont
;;;91       GUI_DispStringHCenterAt("WindowManager - Sample", 160, 5);
000034  2205              MOVS     r2,#5
000036  21a0              MOVS     r1,#0xa0
000038  a0f5              ADR      r0,|L1.1040|
00003a  f7fffffe          BL       GUI_DispStringHCenterAt
;;;92       GUI_SetFont(&GUI_Font8x16);
00003e  48fa              LDR      r0,|L1.1064|
000040  f7fffffe          BL       GUI_SetFont
;;;93       GUI_DispStringAtCEOL(pStr, 5, 40);
000044  4620              MOV      r0,r4
000046  2228              MOVS     r2,#0x28
000048  e8bd4010          POP      {r4,lr}
00004c  2105              MOVS     r1,#5
00004e  f7ffbffe          B.W      GUI_DispStringAtCEOL
;;;94     }
;;;95     
                          ENDP

                  _LiftUp PROC
;;;99     */
;;;100    static void _LiftUp(int dy) {
000052  e92d41f0          PUSH     {r4-r8,lr}
;;;101      int i, tm;
;;;102      for (i = 0; i < (dy/4); i++) {
000056  2400              MOVS     r4,#0
000058  17c1              ASRS     r1,r0,#31
00005a  eb007791          ADD      r7,r0,r1,LSR #30
00005e  ebb40fa7          CMP      r4,r7,ASR #2
000062  da21              BGE      |L1.168|
;;;103        tm = GUI_GetTime();
;;;104        WM_MoveWindow(_hWindow1, 0, -4);
000064  4ef1              LDR      r6,|L1.1068|
                  |L1.102|
000066  f7fffffe          BL       GUI_GetTime
00006a  4605              MOV      r5,r0                 ;103
00006c  f06f0203          MVN      r2,#3
000070  2100              MOVS     r1,#0
000072  f9b60000          LDRSH    r0,[r6,#0]  ; _hWindow1
000076  f7fffffe          BL       WM_MoveWindow
;;;105        WM_MoveWindow(_hWindow2, 0, -4);
00007a  f06f0203          MVN      r2,#3
00007e  2100              MOVS     r1,#0
000080  f9b60002          LDRSH    r0,[r6,#2]  ; _hWindow2
000084  f7fffffe          BL       WM_MoveWindow
;;;106        while ((GUI_GetTime() - tm) < 20) {
000088  f7fffffe          BL       GUI_GetTime
00008c  1b40              SUBS     r0,r0,r5
00008e  2814              CMP      r0,#0x14
000090  da06              BGE      |L1.160|
                  |L1.146|
;;;107          WM_Exec();
000092  f7fffffe          BL       WM_Exec
000096  f7fffffe          BL       GUI_GetTime
00009a  1b40              SUBS     r0,r0,r5              ;106
00009c  2814              CMP      r0,#0x14              ;106
00009e  dbf8              BLT      |L1.146|
                  |L1.160|
0000a0  1c64              ADDS     r4,r4,#1              ;102
0000a2  ebb40fa7          CMP      r4,r7,ASR #2          ;102
0000a6  dbde              BLT      |L1.102|
                  |L1.168|
;;;108        }
;;;109      }
;;;110    }
0000a8  e8bd81f0          POP      {r4-r8,pc}
;;;111    
                          ENDP

                  _LiftDown PROC
;;;115    */
;;;116    static void _LiftDown(int dy) {
0000ac  e92d41f0          PUSH     {r4-r8,lr}
;;;117      int i, tm;
;;;118      for (i = 0; i < (dy/4); i++) {
0000b0  2400              MOVS     r4,#0
0000b2  17c1              ASRS     r1,r0,#31
0000b4  eb007791          ADD      r7,r0,r1,LSR #30
0000b8  ebb40fa7          CMP      r4,r7,ASR #2
0000bc  da1f              BGE      |L1.254|
;;;119        tm = GUI_GetTime();
;;;120        WM_MoveWindow(_hWindow1, 0, 4);
0000be  4edb              LDR      r6,|L1.1068|
                  |L1.192|
0000c0  f7fffffe          BL       GUI_GetTime
0000c4  4605              MOV      r5,r0                 ;119
0000c6  2204              MOVS     r2,#4
0000c8  2100              MOVS     r1,#0
0000ca  f9b60000          LDRSH    r0,[r6,#0]  ; _hWindow1
0000ce  f7fffffe          BL       WM_MoveWindow
;;;121        WM_MoveWindow(_hWindow2, 0, 4);
0000d2  2204              MOVS     r2,#4
0000d4  2100              MOVS     r1,#0
0000d6  f9b60002          LDRSH    r0,[r6,#2]  ; _hWindow2
0000da  f7fffffe          BL       WM_MoveWindow
;;;122        while ((GUI_GetTime() - tm) < 20) {
0000de  f7fffffe          BL       GUI_GetTime
0000e2  1b40              SUBS     r0,r0,r5
0000e4  2814              CMP      r0,#0x14
0000e6  da06              BGE      |L1.246|
                  |L1.232|
;;;123          WM_Exec();
0000e8  f7fffffe          BL       WM_Exec
0000ec  f7fffffe          BL       GUI_GetTime
0000f0  1b40              SUBS     r0,r0,r5              ;122
0000f2  2814              CMP      r0,#0x14              ;122
0000f4  dbf8              BLT      |L1.232|
                  |L1.246|
0000f6  1c64              ADDS     r4,r4,#1              ;118
0000f8  ebb40fa7          CMP      r4,r7,ASR #2          ;118
0000fc  dbe0              BLT      |L1.192|
                  |L1.254|
;;;124        }
;;;125      }
;;;126    }
0000fe  e8bd81f0          POP      {r4-r8,pc}
;;;127    
                          ENDP

                  _cbBkWindow PROC
;;;138    */
;;;139    static void _cbBkWindow(WM_MESSAGE* pMsg) {
000102  b510              PUSH     {r4,lr}
;;;140      switch (pMsg->MsgId) {
000104  6801              LDR      r1,[r0,#0]
000106  290f              CMP      r1,#0xf
000108  d00a              BEQ      |L1.288|
00010a  f5b16f80          CMP      r1,#0x400
00010e  d003              BEQ      |L1.280|
;;;141      case MSG_CHANGE_TEXT:
;;;142        strcpy(_acInfoText, pMsg->Data.p);
;;;143      case WM_PAINT:
;;;144        GUI_SetBkColor(GUI_BLACK);
;;;145        GUI_Clear();
;;;146        GUI_SetColor(GUI_WHITE);
;;;147        GUI_SetFont(&GUI_Font24_ASCII);
;;;148        GUI_DispStringHCenterAt("WindowManager - Sample", 160, 5);
;;;149        GUI_SetFont(&GUI_Font8x16);
;;;150        GUI_DispStringAt(_acInfoText, 5, 40);
;;;151        break;
;;;152      default:
;;;153        WM_DefaultProc(pMsg);
000110  e8bd4010          POP      {r4,lr}
000114  f7ffbffe          B.W      WM_DefaultProc
                  |L1.280|
000118  6881              LDR      r1,[r0,#8]            ;142
00011a  48c5              LDR      r0,|L1.1072|
00011c  f7fffffe          BL       strcpy
                  |L1.288|
000120  2000              MOVS     r0,#0                 ;144
000122  f7fffffe          BL       GUI_SetBkColor
000126  f7fffffe          BL       GUI_Clear
00012a  f06f407f          MVN      r0,#0xff000000        ;146
00012e  f7fffffe          BL       GUI_SetColor
000132  48b6              LDR      r0,|L1.1036|
000134  f7fffffe          BL       GUI_SetFont
000138  2205              MOVS     r2,#5                 ;148
00013a  21a0              MOVS     r1,#0xa0              ;148
00013c  a0b4              ADR      r0,|L1.1040|
00013e  f7fffffe          BL       GUI_DispStringHCenterAt
000142  48b9              LDR      r0,|L1.1064|
000144  f7fffffe          BL       GUI_SetFont
000148  2228              MOVS     r2,#0x28              ;150
00014a  e8bd4010          POP      {r4,lr}               ;150
00014e  2105              MOVS     r1,#5                 ;150
000150  48b7              LDR      r0,|L1.1072|
000152  f7ffbffe          B.W      GUI_DispStringAt
;;;154      }
;;;155    }
;;;156    
                          ENDP

                  _cbWindow1 PROC
;;;160    */
;;;161    static void _cbWindow1(WM_MESSAGE* pMsg) {
000156  b570              PUSH     {r4-r6,lr}
000158  4604              MOV      r4,r0
;;;162      int x, y;
;;;163      switch (pMsg->MsgId) {
00015a  6820              LDR      r0,[r4,#0]
00015c  280f              CMP      r0,#0xf
00015e  d004              BEQ      |L1.362|
;;;164      case WM_PAINT:
;;;165        GUI_SetBkColor(_WindowColor1);
;;;166        GUI_Clear();
;;;167        GUI_SetColor(GUI_WHITE);
;;;168        GUI_SetFont(&GUI_Font24_ASCII);
;;;169        x = WM_GetWindowSizeX(pMsg->hWin);
;;;170        y = WM_GetWindowSizeY(pMsg->hWin);
;;;171        GUI_DispStringHCenterAt("Window 1", x / 2, (y / 2) - 12);
;;;172        break;
;;;173      default:
;;;174        WM_DefaultProc(pMsg);
000160  4620              MOV      r0,r4
000162  e8bd4070          POP      {r4-r6,lr}
000166  f7ffbffe          B.W      WM_DefaultProc
                  |L1.362|
00016a  48b0              LDR      r0,|L1.1068|
00016c  6880              LDR      r0,[r0,#8]            ;165  ; _WindowColor1
00016e  f7fffffe          BL       GUI_SetBkColor
000172  f7fffffe          BL       GUI_Clear
000176  f06f407f          MVN      r0,#0xff000000        ;167
00017a  f7fffffe          BL       GUI_SetColor
00017e  48a3              LDR      r0,|L1.1036|
000180  f7fffffe          BL       GUI_SetFont
000184  f9b40004          LDRSH    r0,[r4,#4]            ;169
000188  f7fffffe          BL       WM_GetWindowSizeX
00018c  4605              MOV      r5,r0                 ;169
00018e  f9b40004          LDRSH    r0,[r4,#4]            ;170
000192  f7fffffe          BL       WM_GetWindowSizeY
000196  eb0070d0          ADD      r0,r0,r0,LSR #31      ;171
00019a  f06f010b          MVN      r1,#0xb               ;171
00019e  eb010260          ADD      r2,r1,r0,ASR #1       ;171
0001a2  eb0570d5          ADD      r0,r5,r5,LSR #31      ;171
0001a6  e8bd4070          POP      {r4-r6,lr}            ;171
0001aa  1041              ASRS     r1,r0,#1              ;171
0001ac  a0a1              ADR      r0,|L1.1076|
0001ae  f7ffbffe          B.W      GUI_DispStringHCenterAt
;;;175      }
;;;176    }
;;;177    
                          ENDP

                  _cbWindow2 PROC
;;;181    */
;;;182    static void _cbWindow2(WM_MESSAGE* pMsg) {
0001b2  b570              PUSH     {r4-r6,lr}
0001b4  4604              MOV      r4,r0
;;;183      int x, y;
;;;184      switch (pMsg->MsgId) {
;;;185      case WM_PAINT:
;;;186        GUI_SetBkColor(_WindowColor2);
0001b6  499d              LDR      r1,|L1.1068|
0001b8  6820              LDR      r0,[r4,#0]            ;184
0001ba  2805              CMP      r0,#5                 ;184
0001bc  d02a              BEQ      |L1.532|
0001be  280f              CMP      r0,#0xf               ;184
0001c0  d004              BEQ      |L1.460|
;;;187        GUI_Clear();
;;;188        GUI_SetColor(GUI_WHITE);
;;;189        GUI_SetFont(&GUI_Font24_ASCII);
;;;190        x = WM_GetWindowSizeX(pMsg->hWin);
;;;191        y = WM_GetWindowSizeY(pMsg->hWin);
;;;192        GUI_DispStringHCenterAt("Window 2", x / 2, (y / 4) - 12);
;;;193        break;
;;;194      case WM_SIZE:
;;;195        WM_InvalidateWindow(_hChild);
;;;196        break;
;;;197      default:
;;;198        WM_DefaultProc(pMsg);
0001c2  4620              MOV      r0,r4
0001c4  e8bd4070          POP      {r4-r6,lr}
0001c8  f7ffbffe          B.W      WM_DefaultProc
                  |L1.460|
0001cc  68c8              LDR      r0,[r1,#0xc]          ;186  ; _WindowColor2
0001ce  f7fffffe          BL       GUI_SetBkColor
0001d2  f7fffffe          BL       GUI_Clear
0001d6  f06f407f          MVN      r0,#0xff000000        ;188
0001da  f7fffffe          BL       GUI_SetColor
0001de  488b              LDR      r0,|L1.1036|
0001e0  f7fffffe          BL       GUI_SetFont
0001e4  f9b40004          LDRSH    r0,[r4,#4]            ;190
0001e8  f7fffffe          BL       WM_GetWindowSizeX
0001ec  4605              MOV      r5,r0                 ;190
0001ee  f9b40004          LDRSH    r0,[r4,#4]            ;191
0001f2  f7fffffe          BL       WM_GetWindowSizeY
0001f6  17c1              ASRS     r1,r0,#31             ;192
0001f8  eb007091          ADD      r0,r0,r1,LSR #30      ;192
0001fc  f06f010b          MVN      r1,#0xb               ;192
000200  eb0102a0          ADD      r2,r1,r0,ASR #2       ;192
000204  eb0570d5          ADD      r0,r5,r5,LSR #31      ;192
000208  e8bd4070          POP      {r4-r6,lr}            ;192
00020c  1041              ASRS     r1,r0,#1              ;192
00020e  a08c              ADR      r0,|L1.1088|
000210  f7ffbffe          B.W      GUI_DispStringHCenterAt
                  |L1.532|
000214  f9b10004          LDRSH    r0,[r1,#4]            ;195  ; _hChild
000218  e8bd4070          POP      {r4-r6,lr}            ;195
00021c  f7ffbffe          B.W      WM_InvalidateWindow
;;;199      }
;;;200    }
;;;201    
                          ENDP

                  _cbChild PROC
;;;205    */
;;;206    static void _cbChild(WM_MESSAGE* pMsg) {
000220  b570              PUSH     {r4-r6,lr}
000222  4604              MOV      r4,r0
;;;207      int x, y;
;;;208      switch (pMsg->MsgId) {
000224  6820              LDR      r0,[r4,#0]
000226  280f              CMP      r0,#0xf
000228  d004              BEQ      |L1.564|
;;;209      case WM_PAINT:
;;;210        GUI_SetBkColor(_ChildColor);
;;;211        GUI_Clear();
;;;212        GUI_SetColor(GUI_RED);
;;;213        GUI_SetFont(&GUI_Font24_ASCII);
;;;214        x = WM_GetWindowSizeX(pMsg->hWin);
;;;215        y = WM_GetWindowSizeY(pMsg->hWin);
;;;216        GUI_DispStringHCenterAt("Child window", x / 2, (y / 2) - 12);
;;;217        break;
;;;218      default:
;;;219        WM_DefaultProc(pMsg);
00022a  4620              MOV      r0,r4
00022c  e8bd4070          POP      {r4-r6,lr}
000230  f7ffbffe          B.W      WM_DefaultProc
                  |L1.564|
000234  487d              LDR      r0,|L1.1068|
000236  6900              LDR      r0,[r0,#0x10]         ;210  ; _ChildColor
000238  f7fffffe          BL       GUI_SetBkColor
00023c  f7fffffe          BL       GUI_Clear
000240  20ff              MOVS     r0,#0xff              ;212
000242  f7fffffe          BL       GUI_SetColor
000246  4871              LDR      r0,|L1.1036|
000248  f7fffffe          BL       GUI_SetFont
00024c  f9b40004          LDRSH    r0,[r4,#4]            ;214
000250  f7fffffe          BL       WM_GetWindowSizeX
000254  4605              MOV      r5,r0                 ;214
000256  f9b40004          LDRSH    r0,[r4,#4]            ;215
00025a  f7fffffe          BL       WM_GetWindowSizeY
00025e  eb0070d0          ADD      r0,r0,r0,LSR #31      ;216
000262  f06f010b          MVN      r1,#0xb               ;216
000266  eb010260          ADD      r2,r1,r0,ASR #1       ;216
00026a  eb0570d5          ADD      r0,r5,r5,LSR #31      ;216
00026e  e8bd4070          POP      {r4-r6,lr}            ;216
000272  1041              ASRS     r1,r0,#1              ;216
000274  a075              ADR      r0,|L1.1100|
000276  f7ffbffe          B.W      GUI_DispStringHCenterAt
;;;220      }
;;;221    }
;;;222    
                          ENDP

                  _cbDemoCallback1 PROC
;;;226    */
;;;227    static void _cbDemoCallback1(WM_MESSAGE* pMsg) {
00027a  b570              PUSH     {r4-r6,lr}
00027c  4604              MOV      r4,r0
;;;228      int x, y;
;;;229      switch (pMsg->MsgId) {
00027e  6820              LDR      r0,[r4,#0]
000280  280f              CMP      r0,#0xf
000282  d004              BEQ      |L1.654|
;;;230      case WM_PAINT:
;;;231        GUI_SetBkColor(GUI_GREEN);
;;;232        GUI_Clear();
;;;233        GUI_SetColor(GUI_RED);
;;;234        GUI_SetFont(&GUI_FontComic18B_1);
;;;235        x = WM_GetWindowSizeX(pMsg->hWin);
;;;236        y = WM_GetWindowSizeY(pMsg->hWin);
;;;237        GUI_DispStringHCenterAt("Window 1\nanother Callback", x / 2, (y / 2) - 18);
;;;238        break;
;;;239      default:
;;;240        WM_DefaultProc(pMsg);
000284  4620              MOV      r0,r4
000286  e8bd4070          POP      {r4-r6,lr}
00028a  f7ffbffe          B.W      WM_DefaultProc
                  |L1.654|
00028e  f44f407f          MOV      r0,#0xff00            ;231
000292  f7fffffe          BL       GUI_SetBkColor
000296  f7fffffe          BL       GUI_Clear
00029a  20ff              MOVS     r0,#0xff              ;233
00029c  f7fffffe          BL       GUI_SetColor
0002a0  486e              LDR      r0,|L1.1116|
0002a2  f7fffffe          BL       GUI_SetFont
0002a6  f9b40004          LDRSH    r0,[r4,#4]            ;235
0002aa  f7fffffe          BL       WM_GetWindowSizeX
0002ae  4605              MOV      r5,r0                 ;235
0002b0  f9b40004          LDRSH    r0,[r4,#4]            ;236
0002b4  f7fffffe          BL       WM_GetWindowSizeY
0002b8  eb0070d0          ADD      r0,r0,r0,LSR #31      ;237
0002bc  f06f0111          MVN      r1,#0x11              ;237
0002c0  eb010260          ADD      r2,r1,r0,ASR #1       ;237
0002c4  eb0570d5          ADD      r0,r5,r5,LSR #31      ;237
0002c8  e8bd4070          POP      {r4-r6,lr}            ;237
0002cc  1041              ASRS     r1,r0,#1              ;237
0002ce  a064              ADR      r0,|L1.1120|
0002d0  f7ffbffe          B.W      GUI_DispStringHCenterAt
;;;241      }
;;;242    }
;;;243    
                          ENDP

                  _cbDemoCallback2 PROC
;;;247    */
;;;248    static void _cbDemoCallback2(WM_MESSAGE* pMsg) {
0002d4  b570              PUSH     {r4-r6,lr}
0002d6  4604              MOV      r4,r0
;;;249      int x, y;
;;;250      switch (pMsg->MsgId) {
0002d8  6820              LDR      r0,[r4,#0]
0002da  280f              CMP      r0,#0xf
0002dc  d004              BEQ      |L1.744|
;;;251      case WM_PAINT:
;;;252        GUI_SetBkColor(GUI_MAGENTA);
;;;253        GUI_Clear();
;;;254        GUI_SetColor(GUI_YELLOW);
;;;255        GUI_SetFont(&GUI_FontComic18B_1);
;;;256        x = WM_GetWindowSizeX(pMsg->hWin);
;;;257        y = WM_GetWindowSizeY(pMsg->hWin);
;;;258        GUI_DispStringHCenterAt("Window 2\nanother Callback", x / 2, (y / 4) - 18);
;;;259        break;
;;;260      default:
;;;261        WM_DefaultProc(pMsg);
0002de  4620              MOV      r0,r4
0002e0  e8bd4070          POP      {r4-r6,lr}
0002e4  f7ffbffe          B.W      WM_DefaultProc
                  |L1.744|
0002e8  f04f10ff          MOV      r0,#0xff00ff          ;252
0002ec  f7fffffe          BL       GUI_SetBkColor
0002f0  f7fffffe          BL       GUI_Clear
0002f4  f64f70ff          MOV      r0,#0xffff            ;254
0002f8  f7fffffe          BL       GUI_SetColor
0002fc  4857              LDR      r0,|L1.1116|
0002fe  f7fffffe          BL       GUI_SetFont
000302  f9b40004          LDRSH    r0,[r4,#4]            ;256
000306  f7fffffe          BL       WM_GetWindowSizeX
00030a  4605              MOV      r5,r0                 ;256
00030c  f9b40004          LDRSH    r0,[r4,#4]            ;257
000310  f7fffffe          BL       WM_GetWindowSizeY
000314  17c1              ASRS     r1,r0,#31             ;258
000316  eb007091          ADD      r0,r0,r1,LSR #30      ;258
00031a  f06f0111          MVN      r1,#0x11              ;258
00031e  eb0102a0          ADD      r2,r1,r0,ASR #2       ;258
000322  eb0570d5          ADD      r0,r5,r5,LSR #31      ;258
000326  e8bd4070          POP      {r4-r6,lr}            ;258
00032a  1041              ASRS     r1,r0,#1              ;258
00032c  a053              ADR      r0,|L1.1148|
00032e  f7ffbffe          B.W      GUI_DispStringHCenterAt
;;;262      }
;;;263    }
;;;264    
                          ENDP

                  _DemoSetDesktopColor PROC
;;;277    */
;;;278    static void _DemoSetDesktopColor(void) {
000332  b510              PUSH     {r4,lr}
;;;279      GUI_SetBkColor(GUI_BLUE);
000334  f44f007f          MOV      r0,#0xff0000
000338  f7fffffe          BL       GUI_SetBkColor
;;;280      GUI_Clear();
00033c  f7fffffe          BL       GUI_Clear
;;;281      _DrawInfoText("WM_SetDesktopColor()");
000340  a055              ADR      r0,|L1.1176|
000342  f7fffffe          BL       _DrawInfoText
;;;282    //  GUIDEMO_Delay(SPEED*2);
;;;283      WM_SetDesktopColor(GUI_BLACK);
000346  2000              MOVS     r0,#0
000348  f7fffffe          BL       WM_SetDesktopColor
;;;284      GUIDEMO_Delay(SPEED/2);
00034c  f2402071          MOV      r0,#0x271
000350  f7fffffe          BL       GUIDEMO_Delay
;;;285      /* Set background color and invalidate desktop color.
;;;286         This is needed for the later redrawing demo. */
;;;287      GUI_SetBkColor(GUI_BLACK);
000354  2000              MOVS     r0,#0
000356  f7fffffe          BL       GUI_SetBkColor
;;;288      WM_SetDesktopColor(GUI_INVALID_COLOR);
00035a  f06f4070          MVN      r0,#0xf0000000
00035e  f7fffffe          BL       WM_SetDesktopColor
;;;289      GUIDEMO_NotifyStartNext();
000362  e8bd4010          POP      {r4,lr}
000366  f7ffbffe          B.W      GUIDEMO_NotifyStartNext
;;;290    }
;;;291    
                          ENDP

                  _DemoCreateWindow PROC
;;;297    */
;;;298    static void _DemoCreateWindow(void) {
00036a  b510              PUSH     {r4,lr}
00036c  b084              SUB      sp,sp,#0x10
;;;299      /* Set callback for background window */
;;;300      _cbBkWindowOld = WM_SetCallback(WM_HBKWIN, _cbBkWindow);
00036e  f7fffffe          BL       WM_GetDesktopWindow
000372  494f              LDR      r1,|L1.1200|
000374  f7fffffe          BL       WM_SetCallback
000378  4c2c              LDR      r4,|L1.1068|
00037a  6160              STR      r0,[r4,#0x14]  ; _cbBkWindowOld
;;;301      /* Create windows */
;;;302      _ChangeInfoText("WM_CreateWindow()");
00037c  a04d              ADR      r0,|L1.1204|
00037e  f7fffffe          BL       _ChangeInfoText
;;;303    //  GUIDEMO_Delay(SPEED);
;;;304      _hWindow1 = WM_CreateWindow( 50,  70, 165, 100, WM_CF_SHOW | WM_CF_MEMDEV, _cbWindow1, 0);
000382  2300              MOVS     r3,#0
000384  4a50              LDR      r2,|L1.1224|
000386  2106              MOVS     r1,#6
000388  9302              STR      r3,[sp,#8]
00038a  9201              STR      r2,[sp,#4]
00038c  9100              STR      r1,[sp,#0]
00038e  2364              MOVS     r3,#0x64
000390  22a5              MOVS     r2,#0xa5
000392  2146              MOVS     r1,#0x46
000394  2032              MOVS     r0,#0x32
000396  f7fffffe          BL       WM_CreateWindow
00039a  8020              STRH     r0,[r4,#0]
;;;305      GUIDEMO_Delay(SPEED/3);
00039c  f44f70d0          MOV      r0,#0x1a0
0003a0  f7fffffe          BL       GUIDEMO_Delay
;;;306      _hWindow2 = WM_CreateWindow(105, 125, 165, 100, WM_CF_SHOW | WM_CF_MEMDEV, _cbWindow2, 0);
0003a4  2300              MOVS     r3,#0
0003a6  4a49              LDR      r2,|L1.1228|
0003a8  2106              MOVS     r1,#6
0003aa  9302              STR      r3,[sp,#8]
0003ac  9201              STR      r2,[sp,#4]
0003ae  9100              STR      r1,[sp,#0]
0003b0  2364              MOVS     r3,#0x64
0003b2  22a5              MOVS     r2,#0xa5
0003b4  217d              MOVS     r1,#0x7d
0003b6  2069              MOVS     r0,#0x69
0003b8  f7fffffe          BL       WM_CreateWindow
0003bc  8060              STRH     r0,[r4,#2]
;;;307      GUIDEMO_Delay(SPEED);
0003be  f24040e2          MOV      r0,#0x4e2
0003c2  f7fffffe          BL       GUIDEMO_Delay
;;;308      GUIDEMO_NotifyStartNext();
0003c6  b004              ADD      sp,sp,#0x10
0003c8  e8bd4010          POP      {r4,lr}
0003cc  f7ffbffe          B.W      GUIDEMO_NotifyStartNext
;;;309    }
;;;310    
                          ENDP

                  _DemoCreateWindowAsChild PROC
;;;316    */
;;;317    static void _DemoCreateWindowAsChild(void) {
0003d0  b510              PUSH     {r4,lr}
0003d2  b084              SUB      sp,sp,#0x10
;;;318      /* Create windows */
;;;319      _ChangeInfoText("WM_CreateWindowAsChild()");
0003d4  a03e              ADR      r0,|L1.1232|
0003d6  f7fffffe          BL       _ChangeInfoText
;;;320    //  GUIDEMO_Delay(SPEED);
;;;321    /*  _hMEdit = MULTIEDIT_Create(10, 50,
;;;322      							 145, 40, 
;;;323                                 _hWindow2, 10, WM_CF_SHOW | WM_CF_MEMDEV,
;;;324                                 MULTIEDIT_CF_AUTOSCROLLBAR_V, "This is a test of multi edit box\n",
;;;325                                 200);
;;;326    */
;;;327      //  MULTIEDIT_SetAutoScrollV(_hMEdit, 1);
;;;328      _hChild = WM_CreateWindowAsChild(10, 50, 145, 40, _hWindow2, WM_CF_SHOW | WM_CF_MEMDEV, _cbChild, 0);
0003da  4c14              LDR      r4,|L1.1068|
0003dc  2300              MOVS     r3,#0
0003de  4a43              LDR      r2,|L1.1260|
0003e0  f9b40002          LDRSH    r0,[r4,#2]  ; _hWindow2
0003e4  2106              MOVS     r1,#6
0003e6  e88d000f          STM      sp,{r0-r3}
0003ea  2328              MOVS     r3,#0x28
0003ec  2291              MOVS     r2,#0x91
0003ee  2132              MOVS     r1,#0x32
0003f0  200a              MOVS     r0,#0xa
0003f2  f7fffffe          BL       WM_CreateWindowAsChild
0003f6  80a0              STRH     r0,[r4,#4]
;;;329      GUIDEMO_Delay(SPEED);
0003f8  f24040e2          MOV      r0,#0x4e2
0003fc  f7fffffe          BL       GUIDEMO_Delay
;;;330      GUIDEMO_NotifyStartNext();
000400  b004              ADD      sp,sp,#0x10
000402  e8bd4010          POP      {r4,lr}
000406  f7ffbffe          B.W      GUIDEMO_NotifyStartNext
00040a  0000              DCW      0x0000
                  |L1.1036|
                          DCD      GUI_Font24_ASCII
                  |L1.1040|
000410  57696e64          DCB      "WindowManager - Sample",0
000414  6f774d61
000418  6e616765
00041c  72202d20
000420  53616d70
000424  6c6500  
000427  00                DCB      0
                  |L1.1064|
                          DCD      GUI_Font8x16
                  |L1.1068|
                          DCD      ||.data||
                  |L1.1072|
                          DCD      ||.bss||
                  |L1.1076|
000434  57696e64          DCB      "Window 1",0
000438  6f772031
00043c  00      
00043d  00                DCB      0
00043e  00                DCB      0
00043f  00                DCB      0
                  |L1.1088|
000440  57696e64          DCB      "Window 2",0
000444  6f772032
000448  00      
000449  00                DCB      0
00044a  00                DCB      0
00044b  00                DCB      0
                  |L1.1100|
00044c  4368696c          DCB      "Child window",0
000450  64207769
000454  6e646f77
000458  00      
000459  00                DCB      0
00045a  00                DCB      0
00045b  00                DCB      0
                  |L1.1116|
                          DCD      GUI_FontComic18B_1
                  |L1.1120|
000460  57696e64          DCB      "Window 1\nanother Callback",0
000464  6f772031
000468  0a616e6f
00046c  74686572
000470  2043616c
000474  6c626163
000478  6b00    
00047a  00                DCB      0
00047b  00                DCB      0
                  |L1.1148|
00047c  57696e64          DCB      "Window 2\nanother Callback",0
000480  6f772032
000484  0a616e6f
000488  74686572
00048c  2043616c
000490  6c626163
000494  6b00    
000496  00                DCB      0
000497  00                DCB      0
                  |L1.1176|
000498  574d5f53          DCB      "WM_SetDesktopColor()",0
00049c  65744465
0004a0  736b746f
0004a4  70436f6c
0004a8  6f722829
0004ac  00      
0004ad  00                DCB      0
0004ae  00                DCB      0
0004af  00                DCB      0
                  |L1.1200|
                          DCD      _cbBkWindow
                  |L1.1204|
0004b4  574d5f43          DCB      "WM_CreateWindow()",0
0004b8  72656174
0004bc  6557696e
0004c0  646f7728
0004c4  2900    
0004c6  00                DCB      0
0004c7  00                DCB      0
                  |L1.1224|
                          DCD      _cbWindow1
                  |L1.1228|
                          DCD      _cbWindow2
                  |L1.1232|
0004d0  574d5f43          DCB      "WM_CreateWindowAsChild()",0
0004d4  72656174
0004d8  6557696e
0004dc  646f7741
0004e0  73436869
0004e4  6c642829
0004e8  00      
0004e9  00                DCB      0
0004ea  00                DCB      0
0004eb  00                DCB      0
                  |L1.1260|
                          DCD      _cbChild
                          ENDP

                  _DemoInvalidateWindow PROC
;;;338    */
;;;339    static void _DemoInvalidateWindow(void) {
0004f0  b510              PUSH     {r4,lr}
;;;340      _ChangeInfoText("WM_InvalidateWindow()");
0004f2  a0fc              ADR      r0,|L1.2276|
0004f4  f7fffffe          BL       _ChangeInfoText
;;;341      _WindowColor1 = GUI_BLUE;
0004f8  f44f017f          MOV      r1,#0xff0000
0004fc  48ff              LDR      r0,|L1.2300|
0004fe  6081              STR      r1,[r0,#8]  ; _WindowColor1
;;;342    //  GUIDEMO_Delay(SPEED);
;;;343      WM_InvalidateWindow(_hWindow1);
000500  f9b00000          LDRSH    r0,[r0,#0]  ; _hWindow1
000504  f7fffffe          BL       WM_InvalidateWindow
;;;344      GUIDEMO_Delay(SPEED);
000508  f24040e2          MOV      r0,#0x4e2
00050c  f7fffffe          BL       GUIDEMO_Delay
;;;345      GUIDEMO_NotifyStartNext();
000510  e8bd4010          POP      {r4,lr}
000514  f7ffbffe          B.W      GUIDEMO_NotifyStartNext
;;;346    }
;;;347    
                          ENDP

                  _DemoBringToTop PROC
;;;353    */
;;;354    static void _DemoBringToTop(void) {
000518  b510              PUSH     {r4,lr}
;;;355      _ChangeInfoText("WM_BringToTop()");
00051a  a0f9              ADR      r0,|L1.2304|
00051c  f7fffffe          BL       _ChangeInfoText
;;;356    //  GUIDEMO_Delay(SPEED);
;;;357      WM_BringToTop(_hWindow1);    
000520  48f6              LDR      r0,|L1.2300|
000522  f9b00000          LDRSH    r0,[r0,#0]  ; _hWindow1
000526  f7fffffe          BL       WM_BringToTop
;;;358      GUIDEMO_Delay(SPEED);
00052a  f24040e2          MOV      r0,#0x4e2
00052e  f7fffffe          BL       GUIDEMO_Delay
;;;359      GUIDEMO_NotifyStartNext();
000532  e8bd4010          POP      {r4,lr}
000536  f7ffbffe          B.W      GUIDEMO_NotifyStartNext
;;;360    }
;;;361    
                          ENDP

                  _DemoMoveTo PROC
;;;367    */
;;;368    static void _DemoMoveTo(void) {
00053a  b570              PUSH     {r4-r6,lr}
;;;369      int i, tm, tDiff;
;;;370      _ChangeInfoText("WM_MoveTo()");
00053c  a0f4              ADR      r0,|L1.2320|
00053e  f7fffffe          BL       _ChangeInfoText
;;;371    //  GUIDEMO_Delay(SPEED);
;;;372      for (i = 1; i < 56; i++) {
000542  2401              MOVS     r4,#1
;;;373        tm = GUI_GetTime();
;;;374        WM_MoveTo(_hWindow1,  50 + i,  70 + i);
000544  4ded              LDR      r5,|L1.2300|
                  |L1.1350|
000546  f7fffffe          BL       GUI_GetTime
00054a  4606              MOV      r6,r0                 ;373
00054c  f1040246          ADD      r2,r4,#0x46
000550  f1040132          ADD      r1,r4,#0x32
000554  f9b50000          LDRSH    r0,[r5,#0]  ; _hWindow1
000558  f7fffffe          BL       WM_MoveTo
;;;375        WM_MoveTo(_hWindow2, 105 - i, 125 - i);
00055c  f1c4027d          RSB      r2,r4,#0x7d
000560  f1c40169          RSB      r1,r4,#0x69
000564  f9b50002          LDRSH    r0,[r5,#2]  ; _hWindow2
000568  f7fffffe          BL       WM_MoveTo
;;;376        tDiff = 15 - (GUI_GetTime() - tm);
00056c  f7fffffe          BL       GUI_GetTime
000570  1b80              SUBS     r0,r0,r6
000572  f1c0000f          RSB      r0,r0,#0xf
;;;377        GUI_Delay(tDiff);
000576  f7fffffe          BL       GUI_Delay
00057a  1c64              ADDS     r4,r4,#1              ;372
00057c  2c38              CMP      r4,#0x38              ;372
00057e  dbe2              BLT      |L1.1350|
;;;378      }
;;;379      for (i = 1; i < 56; i++) {
000580  2401              MOVS     r4,#1
                  |L1.1410|
;;;380        tm = GUI_GetTime();
000582  f7fffffe          BL       GUI_GetTime
000586  4606              MOV      r6,r0
;;;381        WM_MoveTo(_hWindow1, 105 - i, 125 - i);
000588  f1c4027d          RSB      r2,r4,#0x7d
00058c  f1c40169          RSB      r1,r4,#0x69
000590  f9b50000          LDRSH    r0,[r5,#0]  ; _hWindow1
000594  f7fffffe          BL       WM_MoveTo
;;;382        WM_MoveTo(_hWindow2,  50 + i,  70 + i);
000598  f1040246          ADD      r2,r4,#0x46
00059c  f1040132          ADD      r1,r4,#0x32
0005a0  f9b50002          LDRSH    r0,[r5,#2]  ; _hWindow2
0005a4  f7fffffe          BL       WM_MoveTo
;;;383        tDiff = 15 - (GUI_GetTime() - tm);
0005a8  f7fffffe          BL       GUI_GetTime
0005ac  1b80              SUBS     r0,r0,r6
0005ae  f1c0000f          RSB      r0,r0,#0xf
;;;384        GUI_Delay(tDiff);
0005b2  f7fffffe          BL       GUI_Delay
0005b6  1c64              ADDS     r4,r4,#1              ;379
0005b8  2c38              CMP      r4,#0x38              ;379
0005ba  dbe2              BLT      |L1.1410|
;;;385      }
;;;386      GUIDEMO_Delay(SPEED);
0005bc  f24040e2          MOV      r0,#0x4e2
0005c0  f7fffffe          BL       GUIDEMO_Delay
;;;387      GUIDEMO_NotifyStartNext();
0005c4  e8bd4070          POP      {r4-r6,lr}
0005c8  f7ffbffe          B.W      GUIDEMO_NotifyStartNext
;;;388    }
;;;389    
                          ENDP

                  _DemoBringToBottom PROC
;;;395    */
;;;396    static void _DemoBringToBottom(void) {
0005cc  b510              PUSH     {r4,lr}
;;;397      _ChangeInfoText("WM_BringToBottom()");
0005ce  a0d3              ADR      r0,|L1.2332|
0005d0  f7fffffe          BL       _ChangeInfoText
;;;398    //  GUIDEMO_Delay(SPEED);
;;;399      WM_BringToBottom(_hWindow1);
0005d4  48c9              LDR      r0,|L1.2300|
0005d6  f9b00000          LDRSH    r0,[r0,#0]  ; _hWindow1
0005da  f7fffffe          BL       WM_BringToBottom
;;;400      GUIDEMO_Delay(SPEED);
0005de  f24040e2          MOV      r0,#0x4e2
0005e2  f7fffffe          BL       GUIDEMO_Delay
;;;401      GUIDEMO_NotifyStartNext();
0005e6  e8bd4010          POP      {r4,lr}
0005ea  f7ffbffe          B.W      GUIDEMO_NotifyStartNext
;;;402    }
;;;403    
                          ENDP

                  _DemoMoveWindow PROC
;;;409    */
;;;410    static void _DemoMoveWindow(void) {
0005ee  b570              PUSH     {r4-r6,lr}
;;;411      int i, tm, tDiff;
;;;412      _ChangeInfoText("WM_MoveWindow()");
0005f0  a0cf              ADR      r0,|L1.2352|
0005f2  f7fffffe          BL       _ChangeInfoText
;;;413    //  GUIDEMO_Delay(SPEED);
;;;414      for (i = 0; i < 55; i++) {
0005f6  2400              MOVS     r4,#0
;;;415        tm = GUI_GetTime();
;;;416        WM_MoveWindow(_hWindow1,  1,  1);
0005f8  4dc0              LDR      r5,|L1.2300|
                  |L1.1530|
0005fa  f7fffffe          BL       GUI_GetTime
0005fe  4606              MOV      r6,r0                 ;415
000600  2201              MOVS     r2,#1
000602  4611              MOV      r1,r2
000604  f9b50000          LDRSH    r0,[r5,#0]  ; _hWindow1
000608  f7fffffe          BL       WM_MoveWindow
;;;417        WM_MoveWindow(_hWindow2, -1, -1);
00060c  f04f32ff          MOV      r2,#0xffffffff
000610  4611              MOV      r1,r2
000612  f9b50002          LDRSH    r0,[r5,#2]  ; _hWindow2
000616  f7fffffe          BL       WM_MoveWindow
;;;418        tDiff = 15 - (GUI_GetTime() - tm);
00061a  f7fffffe          BL       GUI_GetTime
00061e  1b80              SUBS     r0,r0,r6
000620  f1c0000f          RSB      r0,r0,#0xf
;;;419        GUI_Delay(tDiff);
000624  f7fffffe          BL       GUI_Delay
000628  1c64              ADDS     r4,r4,#1              ;414
00062a  2c37              CMP      r4,#0x37              ;414
00062c  dbe5              BLT      |L1.1530|
;;;420      }
;;;421      for (i = 0; i < 55; i++) {
00062e  2400              MOVS     r4,#0
                  |L1.1584|
;;;422        tm = GUI_GetTime();
000630  f7fffffe          BL       GUI_GetTime
000634  4606              MOV      r6,r0
;;;423        WM_MoveWindow(_hWindow1, -1, -1);
000636  f04f32ff          MOV      r2,#0xffffffff
00063a  4611              MOV      r1,r2
00063c  f9b50000          LDRSH    r0,[r5,#0]  ; _hWindow1
000640  f7fffffe          BL       WM_MoveWindow
;;;424        WM_MoveWindow(_hWindow2,  1,  1);
000644  2201              MOVS     r2,#1
000646  4611              MOV      r1,r2
000648  f9b50002          LDRSH    r0,[r5,#2]  ; _hWindow2
00064c  f7fffffe          BL       WM_MoveWindow
;;;425        tDiff = 15 - (GUI_GetTime() - tm);
000650  f7fffffe          BL       GUI_GetTime
000654  1b80              SUBS     r0,r0,r6
000656  f1c0000f          RSB      r0,r0,#0xf
;;;426        GUI_Delay(tDiff);
00065a  f7fffffe          BL       GUI_Delay
00065e  1c64              ADDS     r4,r4,#1              ;421
000660  2c37              CMP      r4,#0x37              ;421
000662  dbe5              BLT      |L1.1584|
;;;427      }
;;;428      GUIDEMO_Delay(SPEED);
000664  f24040e2          MOV      r0,#0x4e2
000668  f7fffffe          BL       GUIDEMO_Delay
;;;429      GUIDEMO_NotifyStartNext();
00066c  e8bd4070          POP      {r4-r6,lr}
000670  f7ffbffe          B.W      GUIDEMO_NotifyStartNext
;;;430    }
;;;431    
                          ENDP

                  _DemoHideShowParent PROC
;;;437    */
;;;438    static void _DemoHideShowParent(void) {
000674  b510              PUSH     {r4,lr}
;;;439      _ChangeInfoText("WM_HideWindow(Parent)");
000676  a0b2              ADR      r0,|L1.2368|
000678  f7fffffe          BL       _ChangeInfoText
;;;440    //  GUIDEMO_Delay(SPEED);
;;;441      WM_HideWindow(_hWindow2);
00067c  4c9f              LDR      r4,|L1.2300|
00067e  f9b40002          LDRSH    r0,[r4,#2]  ; _hWindow2
000682  f7fffffe          BL       WM_HideWindow
;;;442      GUIDEMO_Delay(SPEED/3);
000686  f44f70d0          MOV      r0,#0x1a0
00068a  f7fffffe          BL       GUIDEMO_Delay
;;;443      WM_HideWindow(_hWindow1);
00068e  f9b40000          LDRSH    r0,[r4,#0]  ; _hWindow1
000692  f7fffffe          BL       WM_HideWindow
;;;444      GUIDEMO_Delay(SPEED);
000696  f24040e2          MOV      r0,#0x4e2
00069a  f7fffffe          BL       GUIDEMO_Delay
;;;445      _ChangeInfoText("WM_ShowWindow(Parent)");
00069e  a0ae              ADR      r0,|L1.2392|
0006a0  f7fffffe          BL       _ChangeInfoText
;;;446      GUIDEMO_Delay(SPEED);
0006a4  f24040e2          MOV      r0,#0x4e2
0006a8  f7fffffe          BL       GUIDEMO_Delay
;;;447      WM_ShowWindow(_hWindow1);
0006ac  f9b40000          LDRSH    r0,[r4,#0]  ; _hWindow1
0006b0  f7fffffe          BL       WM_ShowWindow
;;;448      GUIDEMO_Delay(SPEED/3);
0006b4  f44f70d0          MOV      r0,#0x1a0
0006b8  f7fffffe          BL       GUIDEMO_Delay
;;;449      WM_ShowWindow(_hWindow2);
0006bc  f9b40002          LDRSH    r0,[r4,#2]  ; _hWindow2
0006c0  f7fffffe          BL       WM_ShowWindow
;;;450      GUIDEMO_Delay(SPEED);
0006c4  f24040e2          MOV      r0,#0x4e2
0006c8  f7fffffe          BL       GUIDEMO_Delay
;;;451      GUIDEMO_NotifyStartNext();
0006cc  e8bd4010          POP      {r4,lr}
0006d0  f7ffbffe          B.W      GUIDEMO_NotifyStartNext
;;;452    }
;;;453    
                          ENDP

                  _DemoHideShowChild PROC
;;;459    */
;;;460    static void _DemoHideShowChild(void) {
0006d4  b510              PUSH     {r4,lr}
;;;461      _ChangeInfoText("WM_HideWindow(Child)");
0006d6  a0a6              ADR      r0,|L1.2416|
0006d8  f7fffffe          BL       _ChangeInfoText
;;;462    //  GUIDEMO_Delay(SPEED);
;;;463      WM_HideWindow(_hChild);
0006dc  4c87              LDR      r4,|L1.2300|
0006de  f9b40004          LDRSH    r0,[r4,#4]  ; _hChild
0006e2  f7fffffe          BL       WM_HideWindow
;;;464      GUIDEMO_Delay(SPEED);
0006e6  f24040e2          MOV      r0,#0x4e2
0006ea  f7fffffe          BL       GUIDEMO_Delay
;;;465      _ChangeInfoText("WM_ShowWindow(Child)");
0006ee  a0a6              ADR      r0,|L1.2440|
0006f0  f7fffffe          BL       _ChangeInfoText
;;;466      GUIDEMO_Delay(SPEED);
0006f4  f24040e2          MOV      r0,#0x4e2
0006f8  f7fffffe          BL       GUIDEMO_Delay
;;;467      WM_ShowWindow(_hChild);
0006fc  f9b40004          LDRSH    r0,[r4,#4]  ; _hChild
000700  f7fffffe          BL       WM_ShowWindow
;;;468      GUIDEMO_Delay(SPEED);
000704  f24040e2          MOV      r0,#0x4e2
000708  f7fffffe          BL       GUIDEMO_Delay
;;;469      GUIDEMO_NotifyStartNext();
00070c  e8bd4010          POP      {r4,lr}
000710  f7ffbffe          B.W      GUIDEMO_NotifyStartNext
;;;470    }
;;;471    
                          ENDP

                  _DemoRedrawing PROC
;;;521    */
;;;522    static void _DemoRedrawing(void) {
000714  b570              PUSH     {r4-r6,lr}
;;;523      int i, tm, tDiff;
;;;524      _ChangeInfoText("Demonstrating redrawing");
000716  a0a2              ADR      r0,|L1.2464|
000718  f7fffffe          BL       _ChangeInfoText
;;;525    //  GUIDEMO_Delay(SPEED);
;;;526      _LiftUp(40);
00071c  2028              MOVS     r0,#0x28
00071e  f7fffffe          BL       _LiftUp
;;;527      GUIDEMO_Delay(SPEED/3);
000722  f44f70d0          MOV      r0,#0x1a0
000726  f7fffffe          BL       GUIDEMO_Delay
;;;528      _ChangeInfoText("Using a callback for redrawing");
00072a  a0a3              ADR      r0,|L1.2488|
00072c  f7fffffe          BL       _ChangeInfoText
;;;529      GUIDEMO_Delay(SPEED/3);
000730  f44f70d0          MOV      r0,#0x1a0
000734  f7fffffe          BL       GUIDEMO_Delay
;;;530      for (i = 0; i < 55; i++) {
000738  2400              MOVS     r4,#0
;;;531        tm = GUI_GetTime();
;;;532        WM_MoveWindow(_hWindow1,  1,  1);
00073a  4d70              LDR      r5,|L1.2300|
                  |L1.1852|
00073c  f7fffffe          BL       GUI_GetTime
000740  4606              MOV      r6,r0                 ;531
000742  2201              MOVS     r2,#1
000744  4611              MOV      r1,r2
000746  f9b50000          LDRSH    r0,[r5,#0]  ; _hWindow1
00074a  f7fffffe          BL       WM_MoveWindow
;;;533        WM_MoveWindow(_hWindow2, -1, -1);
00074e  f04f32ff          MOV      r2,#0xffffffff
000752  4611              MOV      r1,r2
000754  f9b50002          LDRSH    r0,[r5,#2]  ; _hWindow2
000758  f7fffffe          BL       WM_MoveWindow
;;;534        tDiff = 15 - (GUI_GetTime() - tm);
00075c  f7fffffe          BL       GUI_GetTime
000760  1b80              SUBS     r0,r0,r6
000762  f1c0000f          RSB      r0,r0,#0xf
;;;535        GUI_Delay(tDiff);
000766  f7fffffe          BL       GUI_Delay
00076a  1c64              ADDS     r4,r4,#1              ;530
00076c  2c37              CMP      r4,#0x37              ;530
00076e  dbe5              BLT      |L1.1852|
;;;536      }
;;;537      for (i = 0; i < 55; i++) {
000770  2400              MOVS     r4,#0
                  |L1.1906|
;;;538        tm = GUI_GetTime();
000772  f7fffffe          BL       GUI_GetTime
000776  4606              MOV      r6,r0
;;;539        WM_MoveWindow(_hWindow1, -1, -1);
000778  f04f32ff          MOV      r2,#0xffffffff
00077c  4611              MOV      r1,r2
00077e  f9b50000          LDRSH    r0,[r5,#0]  ; _hWindow1
000782  f7fffffe          BL       WM_MoveWindow
;;;540        WM_MoveWindow(_hWindow2,  1,  1);
000786  2201              MOVS     r2,#1
000788  4611              MOV      r1,r2
00078a  f9b50002          LDRSH    r0,[r5,#2]  ; _hWindow2
00078e  f7fffffe          BL       WM_MoveWindow
;;;541        tDiff = 15 - (GUI_GetTime() - tm);
000792  f7fffffe          BL       GUI_GetTime
000796  1b80              SUBS     r0,r0,r6
000798  f1c0000f          RSB      r0,r0,#0xf
;;;542        GUI_Delay(tDiff);
00079c  f7fffffe          BL       GUI_Delay
0007a0  1c64              ADDS     r4,r4,#1              ;537
0007a2  2c37              CMP      r4,#0x37              ;537
0007a4  dbe5              BLT      |L1.1906|
;;;543      }
;;;544      GUIDEMO_Delay(SPEED/4);
0007a6  f44f709c          MOV      r0,#0x138
0007aa  f7fffffe          BL       GUIDEMO_Delay
;;;545      _LiftDown(30);
0007ae  201e              MOVS     r0,#0x1e
0007b0  f7fffffe          BL       _LiftDown
;;;546      GUIDEMO_Delay(SPEED/2);
0007b4  f2402071          MOV      r0,#0x271
0007b8  f7fffffe          BL       GUIDEMO_Delay
;;;547      _ChangeInfoText("Without redrawing");
0007bc  a086              ADR      r0,|L1.2520|
0007be  f7fffffe          BL       _ChangeInfoText
;;;548      GUIDEMO_Delay(SPEED);
0007c2  f24040e2          MOV      r0,#0x4e2
0007c6  f7fffffe          BL       GUIDEMO_Delay
;;;549      _LiftUp(30);
0007ca  201e              MOVS     r0,#0x1e
0007cc  f7fffffe          BL       _LiftUp
;;;550      GUIDEMO_Delay(SPEED/4);
0007d0  f44f709c          MOV      r0,#0x138
0007d4  f7fffffe          BL       GUIDEMO_Delay
;;;551      WM_SetCallback(WM_HBKWIN, _cbBkWindowOld);
0007d8  f7fffffe          BL       WM_GetDesktopWindow
0007dc  6969              LDR      r1,[r5,#0x14]  ; _cbBkWindowOld
0007de  f7fffffe          BL       WM_SetCallback
;;;552      for (i = 0; i < 55; i++) {
0007e2  2400              MOVS     r4,#0
                  |L1.2020|
;;;553        tm = GUI_GetTime();
0007e4  f7fffffe          BL       GUI_GetTime
0007e8  4606              MOV      r6,r0
;;;554        WM_MoveWindow(_hWindow1,  1,  1);
0007ea  2201              MOVS     r2,#1
0007ec  4611              MOV      r1,r2
0007ee  f9b50000          LDRSH    r0,[r5,#0]  ; _hWindow1
0007f2  f7fffffe          BL       WM_MoveWindow
;;;555        WM_MoveWindow(_hWindow2, -1, -1);
0007f6  f04f32ff          MOV      r2,#0xffffffff
0007fa  4611              MOV      r1,r2
0007fc  f9b50002          LDRSH    r0,[r5,#2]  ; _hWindow2
000800  f7fffffe          BL       WM_MoveWindow
;;;556        tDiff = 15 - (GUI_GetTime() - tm);
000804  f7fffffe          BL       GUI_GetTime
000808  1b80              SUBS     r0,r0,r6
00080a  f1c0000f          RSB      r0,r0,#0xf
;;;557        GUI_Delay(tDiff);
00080e  f7fffffe          BL       GUI_Delay
000812  1c64              ADDS     r4,r4,#1              ;552
000814  2c37              CMP      r4,#0x37              ;552
000816  dbe5              BLT      |L1.2020|
;;;558      }
;;;559      for (i = 0; i < 55; i++) {
000818  2400              MOVS     r4,#0
                  |L1.2074|
;;;560        tm = GUI_GetTime();
00081a  f7fffffe          BL       GUI_GetTime
00081e  4606              MOV      r6,r0
;;;561        WM_MoveWindow(_hWindow1, -1, -1);
000820  f04f32ff          MOV      r2,#0xffffffff
000824  4611              MOV      r1,r2
000826  f9b50000          LDRSH    r0,[r5,#0]  ; _hWindow1
00082a  f7fffffe          BL       WM_MoveWindow
;;;562        WM_MoveWindow(_hWindow2,  1,  1);
00082e  2201              MOVS     r2,#1
000830  4611              MOV      r1,r2
000832  f9b50002          LDRSH    r0,[r5,#2]  ; _hWindow2
000836  f7fffffe          BL       WM_MoveWindow
;;;563        tDiff = 15 - (GUI_GetTime() - tm);
00083a  f7fffffe          BL       GUI_GetTime
00083e  1b80              SUBS     r0,r0,r6
000840  f1c0000f          RSB      r0,r0,#0xf
;;;564        GUI_Delay(tDiff);
000844  f7fffffe          BL       GUI_Delay
000848  1c64              ADDS     r4,r4,#1              ;559
00084a  2c37              CMP      r4,#0x37              ;559
00084c  dbe5              BLT      |L1.2074|
;;;565      }
;;;566      GUIDEMO_Delay(SPEED/3);
00084e  f44f70d0          MOV      r0,#0x1a0
000852  f7fffffe          BL       GUIDEMO_Delay
;;;567      WM_SetCallback(WM_HBKWIN, _cbBkWindow);
000856  f7fffffe          BL       WM_GetDesktopWindow
00085a  4964              LDR      r1,|L1.2540|
00085c  f7fffffe          BL       WM_SetCallback
;;;568      _LiftDown(40);
000860  2028              MOVS     r0,#0x28
000862  f7fffffe          BL       _LiftDown
;;;569      GUIDEMO_Delay(SPEED);
000866  f24040e2          MOV      r0,#0x4e2
00086a  f7fffffe          BL       GUIDEMO_Delay
;;;570      GUIDEMO_NotifyStartNext();
00086e  e8bd4070          POP      {r4-r6,lr}
000872  f7ffbffe          B.W      GUIDEMO_NotifyStartNext
;;;571    }
;;;572    
                          ENDP

                  _DemoResizeWindow PROC
;;;578    */
;;;579    static void _DemoResizeWindow(void) {
000876  b570              PUSH     {r4-r6,lr}
;;;580      int i, tm,tDiff;
;;;581      _ChangeInfoText("WM_ResizeWindow()");
000878  a05d              ADR      r0,|L1.2544|
00087a  f7fffffe          BL       _ChangeInfoText
;;;582    //  GUIDEMO_Delay(SPEED);
;;;583      _LiftUp(30);
00087e  201e              MOVS     r0,#0x1e
000880  f7fffffe          BL       _LiftUp
;;;584      for (i = 0; i < 40; i++) {
000884  2400              MOVS     r4,#0
;;;585        tm = GUI_GetTime();
;;;586        WM_ResizeWindow(_hWindow1,  1,  1);
000886  4d1d              LDR      r5,|L1.2300|
                  |L1.2184|
000888  f7fffffe          BL       GUI_GetTime
00088c  4606              MOV      r6,r0                 ;585
00088e  2201              MOVS     r2,#1
000890  4611              MOV      r1,r2
000892  f9b50000          LDRSH    r0,[r5,#0]  ; _hWindow1
000896  f7fffffe          BL       WM_ResizeWindow
;;;587        WM_ResizeWindow(_hWindow2, -1, -1);
00089a  f04f32ff          MOV      r2,#0xffffffff
00089e  4611              MOV      r1,r2
0008a0  f9b50002          LDRSH    r0,[r5,#2]  ; _hWindow2
0008a4  f7fffffe          BL       WM_ResizeWindow
;;;588        tDiff = 15 - (GUI_GetTime() - tm);
0008a8  f7fffffe          BL       GUI_GetTime
0008ac  1b80              SUBS     r0,r0,r6
0008ae  f1c0000f          RSB      r0,r0,#0xf
;;;589        GUI_Delay(tDiff);
0008b2  f7fffffe          BL       GUI_Delay
0008b6  1c64              ADDS     r4,r4,#1              ;584
0008b8  2c28              CMP      r4,#0x28              ;584
0008ba  dbe5              BLT      |L1.2184|
;;;590      }
;;;591      for (i = 0; i < 80; i++) {
0008bc  2400              MOVS     r4,#0
                  |L1.2238|
;;;592        tm = GUI_GetTime();
0008be  f7fffffe          BL       GUI_GetTime
0008c2  4606              MOV      r6,r0
;;;593        WM_ResizeWindow(_hWindow1, -1, -1);
0008c4  f04f32ff          MOV      r2,#0xffffffff
0008c8  4611              MOV      r1,r2
0008ca  f9b50000          LDRSH    r0,[r5,#0]  ; _hWindow1
0008ce  f7fffffe          BL       WM_ResizeWindow
;;;594        WM_ResizeWindow(_hWindow2,  1,  1);
0008d2  2201              MOVS     r2,#1
0008d4  4611              MOV      r1,r2
0008d6  f9b50002          LDRSH    r0,[r5,#2]  ; _hWindow2
0008da  f7fffffe          BL       WM_ResizeWindow
;;;595        tDiff = 15 - (GUI_GetTime() - tm);
0008de  f7fffffe          BL       GUI_GetTime
0008e2  e08f              B        |L1.2564|
                  |L1.2276|
0008e4  574d5f49          DCB      "WM_InvalidateWindow()",0
0008e8  6e76616c
0008ec  69646174
0008f0  6557696e
0008f4  646f7728
0008f8  2900    
0008fa  00                DCB      0
0008fb  00                DCB      0
                  |L1.2300|
                          DCD      ||.data||
                  |L1.2304|
000900  574d5f42          DCB      "WM_BringToTop()",0
000904  72696e67
000908  546f546f
00090c  70282900
                  |L1.2320|
000910  574d5f4d          DCB      "WM_MoveTo()",0
000914  6f766554
000918  6f282900
                  |L1.2332|
00091c  574d5f42          DCB      "WM_BringToBottom()",0
000920  72696e67
000924  546f426f
000928  74746f6d
00092c  282900  
00092f  00                DCB      0
                  |L1.2352|
000930  574d5f4d          DCB      "WM_MoveWindow()",0
000934  6f766557
000938  696e646f
00093c  77282900
                  |L1.2368|
000940  574d5f48          DCB      "WM_HideWindow(Parent)",0
000944  69646557
000948  696e646f
00094c  77285061
000950  72656e74
000954  2900    
000956  00                DCB      0
000957  00                DCB      0
                  |L1.2392|
000958  574d5f53          DCB      "WM_ShowWindow(Parent)",0
00095c  686f7757
000960  696e646f
000964  77285061
000968  72656e74
00096c  2900    
00096e  00                DCB      0
00096f  00                DCB      0
                  |L1.2416|
000970  574d5f48          DCB      "WM_HideWindow(Child)",0
000974  69646557
000978  696e646f
00097c  77284368
000980  696c6429
000984  00      
000985  00                DCB      0
000986  00                DCB      0
000987  00                DCB      0
                  |L1.2440|
000988  574d5f53          DCB      "WM_ShowWindow(Child)",0
00098c  686f7757
000990  696e646f
000994  77284368
000998  696c6429
00099c  00      
00099d  00                DCB      0
00099e  00                DCB      0
00099f  00                DCB      0
                  |L1.2464|
0009a0  44656d6f          DCB      "Demonstrating redrawing",0
0009a4  6e737472
0009a8  6174696e
0009ac  67207265
0009b0  64726177
0009b4  696e6700
                  |L1.2488|
0009b8  5573696e          DCB      "Using a callback for redrawing",0
0009bc  67206120
0009c0  63616c6c
0009c4  6261636b
0009c8  20666f72
0009cc  20726564
0009d0  72617769
0009d4  6e6700  
0009d7  00                DCB      0
                  |L1.2520|
0009d8  57697468          DCB      "Without redrawing",0
0009dc  6f757420
0009e0  72656472
0009e4  6177696e
0009e8  6700    
0009ea  00                DCB      0
0009eb  00                DCB      0
                  |L1.2540|
                          DCD      _cbBkWindow
                  |L1.2544|
0009f0  574d5f52          DCB      "WM_ResizeWindow()",0
0009f4  6573697a
0009f8  6557696e
0009fc  646f7728
000a00  2900    
000a02  00                DCB      0
000a03  00                DCB      0
                  |L1.2564|
000a04  1b80              SUBS     r0,r0,r6
000a06  f1c0000f          RSB      r0,r0,#0xf
;;;596        GUI_Delay(tDiff);
000a0a  f7fffffe          BL       GUI_Delay
000a0e  1c64              ADDS     r4,r4,#1              ;591
000a10  2c50              CMP      r4,#0x50              ;591
000a12  f6ffaf54          BLT      |L1.2238|
;;;597      }
;;;598      for (i = 0; i < 40; i++) {
000a16  2400              MOVS     r4,#0
                  |L1.2584|
;;;599        tm = GUI_GetTime();
000a18  f7fffffe          BL       GUI_GetTime
000a1c  4606              MOV      r6,r0
;;;600        WM_ResizeWindow(_hWindow1,  1,  1);
000a1e  2201              MOVS     r2,#1
000a20  4611              MOV      r1,r2
000a22  f9b50000          LDRSH    r0,[r5,#0]  ; _hWindow1
000a26  f7fffffe          BL       WM_ResizeWindow
;;;601        WM_ResizeWindow(_hWindow2, -1, -1);
000a2a  f04f32ff          MOV      r2,#0xffffffff
000a2e  4611              MOV      r1,r2
000a30  f9b50002          LDRSH    r0,[r5,#2]  ; _hWindow2
000a34  f7fffffe          BL       WM_ResizeWindow
;;;602        tDiff = 15 - (GUI_GetTime() - tm);
000a38  f7fffffe          BL       GUI_GetTime
000a3c  1b80              SUBS     r0,r0,r6
000a3e  f1c0000f          RSB      r0,r0,#0xf
;;;603        GUI_Delay(tDiff);
000a42  f7fffffe          BL       GUI_Delay
000a46  1c64              ADDS     r4,r4,#1              ;598
000a48  2c28              CMP      r4,#0x28              ;598
000a4a  dbe5              BLT      |L1.2584|
;;;604      }
;;;605      _LiftDown(30);
000a4c  201e              MOVS     r0,#0x1e
000a4e  f7fffffe          BL       _LiftDown
;;;606      GUIDEMO_Delay(SPEED);
000a52  f24040e2          MOV      r0,#0x4e2
000a56  f7fffffe          BL       GUIDEMO_Delay
;;;607      GUIDEMO_NotifyStartNext();
000a5a  e8bd4070          POP      {r4-r6,lr}
000a5e  f7ffbffe          B.W      GUIDEMO_NotifyStartNext
;;;608    }
;;;609    
                          ENDP

                  _DemoSetCallback PROC
;;;615    */
;;;616    static void _DemoSetCallback(void) {
000a62  b510              PUSH     {r4,lr}
;;;617      _ChangeInfoText("WM_SetCallback()");
000a64  a048              ADR      r0,|L1.2952|
000a66  f7fffffe          BL       _ChangeInfoText
;;;618    //  GUIDEMO_Delay(SPEED);
;;;619      WM_SetCallback(_hWindow1, _cbDemoCallback1);
000a6a  4c4d              LDR      r4,|L1.2976|
000a6c  494b              LDR      r1,|L1.2972|
000a6e  f9b40000          LDRSH    r0,[r4,#0]  ; _hWindow1
000a72  f7fffffe          BL       WM_SetCallback
;;;620      WM_InvalidateWindow(_hWindow1);
000a76  f9b40000          LDRSH    r0,[r4,#0]  ; _hWindow1
000a7a  f7fffffe          BL       WM_InvalidateWindow
;;;621      GUIDEMO_Delay(SPEED/2);
000a7e  f2402071          MOV      r0,#0x271
000a82  f7fffffe          BL       GUIDEMO_Delay
;;;622      WM_SetCallback(_hWindow2, _cbDemoCallback2);
000a86  4947              LDR      r1,|L1.2980|
000a88  f9b40002          LDRSH    r0,[r4,#2]  ; _hWindow2
000a8c  f7fffffe          BL       WM_SetCallback
;;;623      WM_InvalidateWindow(_hWindow2);
000a90  f9b40002          LDRSH    r0,[r4,#2]  ; _hWindow2
000a94  f7fffffe          BL       WM_InvalidateWindow
;;;624      GUIDEMO_Delay(SPEED*3);
000a98  f64060a6          MOV      r0,#0xea6
000a9c  f7fffffe          BL       GUIDEMO_Delay
;;;625      WM_SetCallback(_hWindow1, _cbWindow1);
000aa0  4941              LDR      r1,|L1.2984|
000aa2  f9b40000          LDRSH    r0,[r4,#0]  ; _hWindow1
000aa6  f7fffffe          BL       WM_SetCallback
;;;626      WM_InvalidateWindow(_hWindow1);
000aaa  f9b40000          LDRSH    r0,[r4,#0]  ; _hWindow1
000aae  f7fffffe          BL       WM_InvalidateWindow
;;;627      GUIDEMO_Delay(SPEED/2);
000ab2  f2402071          MOV      r0,#0x271
000ab6  f7fffffe          BL       GUIDEMO_Delay
;;;628      WM_SetCallback(_hWindow2, _cbWindow2);
000aba  493c              LDR      r1,|L1.2988|
000abc  f9b40002          LDRSH    r0,[r4,#2]  ; _hWindow2
000ac0  f7fffffe          BL       WM_SetCallback
;;;629      WM_InvalidateWindow(_hWindow2);
000ac4  f9b40002          LDRSH    r0,[r4,#2]  ; _hWindow2
000ac8  f7fffffe          BL       WM_InvalidateWindow
;;;630      GUIDEMO_Delay(SPEED);
000acc  f24040e2          MOV      r0,#0x4e2
000ad0  f7fffffe          BL       GUIDEMO_Delay
;;;631      GUIDEMO_NotifyStartNext();
000ad4  e8bd4010          POP      {r4,lr}
000ad8  f7ffbffe          B.W      GUIDEMO_NotifyStartNext
;;;632    }
;;;633    
                          ENDP

                  _DemoDeleteWindow PROC
;;;639    */
;;;640    static void _DemoDeleteWindow(void) {
000adc  b510              PUSH     {r4,lr}
;;;641      _ChangeInfoText("WM_DeleteWindow()");
000ade  a034              ADR      r0,|L1.2992|
000ae0  f7fffffe          BL       _ChangeInfoText
;;;642    //  GUIDEMO_Delay(SPEED);
;;;643      WM_DeleteWindow(_hWindow2);
000ae4  4c2e              LDR      r4,|L1.2976|
000ae6  f9b40002          LDRSH    r0,[r4,#2]  ; _hWindow2
000aea  f7fffffe          BL       WM_DeleteWindow
;;;644      GUIDEMO_Delay(SPEED/3);
000aee  f44f70d0          MOV      r0,#0x1a0
000af2  f7fffffe          BL       GUIDEMO_Delay
;;;645      WM_DeleteWindow(_hWindow1);
000af6  f9b40000          LDRSH    r0,[r4,#0]  ; _hWindow1
000afa  f7fffffe          BL       WM_DeleteWindow
;;;646      GUIDEMO_Delay(SPEED);
000afe  f24040e2          MOV      r0,#0x4e2
000b02  f7fffffe          BL       GUIDEMO_Delay
;;;647      _ChangeInfoText("");
000b06  a024              ADR      r0,|L1.2968|
000b08  f7fffffe          BL       _ChangeInfoText
;;;648      GUIDEMO_Delay(SPEED);
000b0c  f24040e2          MOV      r0,#0x4e2
000b10  f7fffffe          BL       GUIDEMO_Delay
;;;649      /* Restore background callback and window colors */
;;;650      WM_SetCallback(WM_HBKWIN, _cbBkWindowOld);
000b14  f7fffffe          BL       WM_GetDesktopWindow
000b18  6961              LDR      r1,[r4,#0x14]  ; _cbBkWindowOld
000b1a  f7fffffe          BL       WM_SetCallback
;;;651      _WindowColor1 = GUI_GREEN;
000b1e  f44f407f          MOV      r0,#0xff00
000b22  60a0              STR      r0,[r4,#8]  ; _WindowColor1
;;;652      _WindowColor2 = GUI_RED;
000b24  20ff              MOVS     r0,#0xff
000b26  60e0              STR      r0,[r4,#0xc]  ; _WindowColor2
;;;653    }
000b28  bd10              POP      {r4,pc}
;;;654    
                          ENDP

                  GUIDEMO_WM PROC
;;;663    
;;;664    void GUIDEMO_WM(void) {
000b2a  b510              PUSH     {r4,lr}
;;;665      /* Show message */
;;;666    /*
;;;667      GUIDEMO_ShowIntro("Windows Manager",
;;;668                        "\nExamples for the"
;;;669                        "\nWindows manager");
;;;670    */
;;;671      GUIDEMO_NotifyStartNext();
000b2c  f7fffffe          BL       GUIDEMO_NotifyStartNext
;;;672      GUI_SetBkColor(GUI_BLACK);
000b30  2000              MOVS     r0,#0
000b32  f7fffffe          BL       GUI_SetBkColor
;;;673      GUI_Clear();
000b36  f7fffffe          BL       GUI_Clear
;;;674    
;;;675      WM_SetCreateFlags(WM_CF_MEMDEV);
000b3a  2004              MOVS     r0,#4
000b3c  f7fffffe          BL       WM_SetCreateFlags
;;;676      WM_EnableMemdev(WM_HBKWIN);
000b40  f7fffffe          BL       WM_GetDesktopWindow
000b44  f7fffffe          BL       WM_EnableMemdev
;;;677    
;;;678      GUIDEMO_HideInfoWin();
000b48  f7fffffe          BL       GUIDEMO_HideInfoWin
;;;679         _DemoSetDesktopColor();
000b4c  f7fffffe          BL       _DemoSetDesktopColor
;;;680     	 _DemoCreateWindow();
000b50  f7fffffe          BL       _DemoCreateWindow
;;;681         _DemoCreateWindowAsChild();
000b54  f7fffffe          BL       _DemoCreateWindowAsChild
;;;682         _DemoInvalidateWindow();
000b58  f7fffffe          BL       _DemoInvalidateWindow
;;;683         _DemoBringToTop();
000b5c  f7fffffe          BL       _DemoBringToTop
;;;684         _DemoMoveTo();
000b60  f7fffffe          BL       _DemoMoveTo
;;;685         _DemoBringToBottom();
000b64  f7fffffe          BL       _DemoBringToBottom
;;;686         _DemoMoveWindow();
000b68  f7fffffe          BL       _DemoMoveWindow
;;;687         _DemoHideShowParent();
000b6c  f7fffffe          BL       _DemoHideShowParent
;;;688         _DemoHideShowChild();
000b70  f7fffffe          BL       _DemoHideShowChild
;;;689        //_DemoClipping();
;;;690         _DemoRedrawing();
000b74  f7fffffe          BL       _DemoRedrawing
;;;691         _DemoResizeWindow();
000b78  f7fffffe          BL       _DemoResizeWindow
;;;692         _DemoSetCallback();
000b7c  f7fffffe          BL       _DemoSetCallback
;;;693         _DemoDeleteWindow();
000b80  e8bd4010          POP      {r4,lr}
000b84  e7fe              B        _DemoDeleteWindow
;;;694    
;;;695    }
;;;696    	 	 			 		    	 				 	  			   	 	 	 	 	 	  	  	      	   		 	 	 		  		  	 		 	  	  			     			       	   	 			  		    	 	     	 				  	 					 	 			   	  	  			 				 		 	 	 			     			 
                          ENDP

000b86  0000              DCW      0x0000
                  |L1.2952|
000b88  574d5f53          DCB      "WM_SetCallback()"
000b8c  65744361
000b90  6c6c6261
000b94  636b2829
                  |L1.2968|
000b98  00                DCB      0
000b99  00                DCB      0
000b9a  00                DCB      0
000b9b  00                DCB      0
                  |L1.2972|
                          DCD      _cbDemoCallback1
                  |L1.2976|
                          DCD      ||.data||
                  |L1.2980|
                          DCD      _cbDemoCallback2
                  |L1.2984|
                          DCD      _cbWindow1
                  |L1.2988|
                          DCD      _cbWindow2
                  |L1.2992|
000bb0  574d5f44          DCB      "WM_DeleteWindow()",0
000bb4  656c6574
000bb8  6557696e
000bbc  646f7728
000bc0  2900    
000bc2  00                DCB      0
000bc3  00                DCB      0

                          AREA ||.bss||, DATA, NOINIT, ALIGN=6

                  _acInfoText
                          %        40

                          AREA ||.data||, DATA, ALIGN=2

                  _hWindow1
000000  0000              DCB      0x00,0x00
                  _hWindow2
000002  0000              DCB      0x00,0x00
                  _hChild
000004  00000000          DCB      0x00,0x00,0x00,0x00
                  _WindowColor1
                          DCD      0x0000ff00
                  _WindowColor2
                          DCD      0x000000ff
                  _ChildColor
                          DCD      0x0000ffff
                  _cbBkWindowOld
                          DCD      0x00000000
