; generated by ARM C/C++ Compiler, 4.1 [Build 481]
; commandline ArmCC [--debug -c --asm --interleave -o.\rvmdk\guidemo_polygon.o --depend=.\rvmdk\guidemo_polygon.d --cpu=Cortex-M3 --apcs=interwork -O1 -Otime -I. -I..\BSP -I..\..\..\..\..\uCOS-II\Ports\arm-cortex-m3\Generic\RealView -I..\..\..\..\..\uCOS-II\Source -I..\..\..\..\..\CPU\ST\STM32\inc -I..\..\..\..\..\uC-CPU -I..\..\..\..\..\uC-CPU\Arm-Cortex-M3\RealView -I..\..\..\..\..\uC-LIB -I..\..\..\..\..\uC-Probe\Target\Plugins\uCOS-II -I..\..\..\..\..\uC-Probe\Target\Communication\Generic\Source -I..\..\..\..\..\uC-Probe\Target\Communication\Generic\RS-232\Ports\ST\STM32 -I..\..\..\..\..\uC-Probe\Target\Communication\Generic\RS-232\Source -I..\..\..\..\..\User\inc -I..\..\..\..\..\uCGUI\Config -I..\..\..\..\..\uCGUI\GUIDemo -I..\..\..\..\..\uCGUI\LCDDriver -I..\..\..\..\..\uCGUI\GUI\AntiAlias -I..\..\..\..\..\uCGUI\GUI\ConvertColor -I..\..\..\..\..\uCGUI\GUI\ConvertMono -I..\..\..\..\..\uCGUI\GUI\Core -I..\..\..\..\..\uCGUI\GUI\Font -I..\..\..\..\..\uCGUI\GUI\LCDDriver -I..\..\..\..\..\uCGUI\GUI\MemDev -I..\..\..\..\..\uCGUI\GUI\MultiLayer -I..\..\..\..\..\uCGUI\GUI\Widget -I..\..\..\..\..\uCGUI\GUI\WM -Id:\Keil-stm32\ARM\INC -Id:\Keil-stm32\ARM\INC\ST\STM32F10x -D__MICROLIB --omf_browse=.\rvmdk\guidemo_polygon.crf ..\..\..\..\..\uCGUI\GUIDemo\GUIDEMO_Polygon.c]
                          THUMB

                          AREA ||.text||, CODE, READONLY, ALIGN=2

                  GUIDEMO_DemoPolygon PROC
;;;77     
;;;78     void GUIDEMO_DemoPolygon(void) {
000000  b570              PUSH     {r4-r6,lr}
;;;79       int XMid = LCD_GetXSize() / 2;
000002  f7fffffe          BL       LCD_GetXSize
000006  eb0070d0          ADD      r0,r0,r0,LSR #31
00000a  1045              ASRS     r5,r0,#1
;;;80       int YMid = LCD_GetYSize() / 2;
00000c  f7fffffe          BL       LCD_GetYSize
000010  eb0070d0          ADD      r0,r0,r0,LSR #31
000014  1044              ASRS     r4,r0,#1
;;;81       GUIDEMO_ShowIntro("Arbitrary Polygons", 
000016  a11d              ADR      r1,|L1.140|
000018  a023              ADR      r0,|L1.168|
00001a  f7fffffe          BL       GUIDEMO_ShowIntro
;;;82                         "\nStandard and antialiased");
;;;83       GUI_SetColor(GUI_WHITE);
00001e  f06f407f          MVN      r0,#0xff000000
000022  f7fffffe          BL       GUI_SetColor
;;;84       GUI_SetFont(&GUI_FontComic18B_ASCII);
000026  4825              LDR      r0,|L1.188|
000028  f7fffffe          BL       GUI_SetFont
;;;85       #if GUIDEMO_LARGE
;;;86         GUI_DispStringAt("Arbitrary\nPolygons", 0, 0);
;;;87       #endif
;;;88       GUI_FillPolygon(&_aArrow[0], 7, XMid - 50, YMid + 40);
00002c  f1040328          ADD      r3,r4,#0x28
000030  f1a50232          SUB      r2,r5,#0x32
000034  2107              MOVS     r1,#7
000036  4822              LDR      r0,|L1.192|
000038  f7fffffe          BL       GUI_FillPolygon
;;;89       GUI_FillPolygon(&_aArrow[0], 7, XMid + 50, YMid + 40);
00003c  f1040328          ADD      r3,r4,#0x28
000040  f1050232          ADD      r2,r5,#0x32
000044  2107              MOVS     r1,#7
000046  481e              LDR      r0,|L1.192|
000048  f7fffffe          BL       GUI_FillPolygon
;;;90       GUI_SetColor(GUI_GREEN);
00004c  f44f407f          MOV      r0,#0xff00
000050  f7fffffe          BL       GUI_SetColor
;;;91       GUI_FillPolygon(&_aTriangle[0], 3, XMid, YMid + 60);
000054  f104033c          ADD      r3,r4,#0x3c
000058  462a              MOV      r2,r5
00005a  2103              MOVS     r1,#3
00005c  4819              LDR      r0,|L1.196|
00005e  f7fffffe          BL       GUI_FillPolygon
;;;92       GUI_SetColor(GUI_WHITE);
000062  f06f407f          MVN      r0,#0xff000000
000066  f7fffffe          BL       GUI_SetColor
;;;93       #if GUI_SUPPORT_AA
;;;94         GUI_AA_EnableHiRes();
00006a  f7fffffe          BL       GUI_AA_EnableHiRes
;;;95         GUI_AA_FillPolygon(&_aiCursor[0], 4, XMid * 3, (YMid - 40) * 3);
00006e  f1a40028          SUB      r0,r4,#0x28
000072  eb000340          ADD      r3,r0,r0,LSL #1
000076  eb050245          ADD      r2,r5,r5,LSL #1
00007a  2104              MOVS     r1,#4
00007c  4812              LDR      r0,|L1.200|
00007e  f7fffffe          BL       GUI_AA_FillPolygon
;;;96       #endif
;;;97       GUIDEMO_Wait();
000082  e8bd4070          POP      {r4-r6,lr}
000086  f7ffbffe          B.W      GUIDEMO_Wait
;;;98     }
;;;99     	 	 			 		    	 				 	  			   	 	 	 	 	 	  	  	      	   		 	 	 		  		  	 		 	  	  			     			       	   	 			  		    	 	     	 				  	 					 	 			   	  	  			 				 		 	 	 			     			 
                          ENDP

00008a  0000              DCW      0x0000
                  |L1.140|
00008c  0a537461          DCB      "\nStandard and antialiased",0
000090  6e646172
000094  6420616e
000098  6420616e
00009c  7469616c
0000a0  69617365
0000a4  6400    
0000a6  00                DCB      0
0000a7  00                DCB      0
                  |L1.168|
0000a8  41726269          DCB      "Arbitrary Polygons",0
0000ac  74726172
0000b0  7920506f
0000b4  6c79676f
0000b8  6e7300  
0000bb  00                DCB      0
                  |L1.188|
                          DCD      GUI_FontComic18B_ASCII
                  |L1.192|
                          DCD      ||.constdata||
                  |L1.196|
                          DCD      ||.constdata||+0x1c
                  |L1.200|
                          DCD      ||.data||

                          AREA ||.constdata||, DATA, READONLY, ALIGN=1

                  _aArrow
000000  0000fffb          DCW      0x0000,0xfffb
000004  ffd8ffdd          DCW      0xffd8,0xffdd
000008  fff6ffe7          DCW      0xfff6,0xffe7
00000c  fff6ffab          DCW      0xfff6,0xffab
000010  000affab          DCW      0x000a,0xffab
000014  000affe7          DCW      0x000a,0xffe7
000018  0028ffdd          DCW      0x0028,0xffdd
                  _aTriangle
00001c  00000000          DCW      0x0000,0x0000
000020  ffe2ffe2          DCW      0xffe2,0xffe2
000024  001effe2          DCW      0x001e,0xffe2

                          AREA ||.data||, DATA, ALIGN=1

                  _aiCursor
000000  00000000          DCW      0x0000,0x0000
000004  00320064          DCW      0x0032,0x0064
000008  0000005a          DCW      0x0000,0x005a
00000c  ffce0064          DCW      0xffce,0x0064
