; generated by ARM C/C++ Compiler, 4.1 [Build 481]
; commandline ArmCC [--debug -c --asm --interleave -o.\rvmdk\lcdaa.o --depend=.\rvmdk\lcdaa.d --cpu=Cortex-M3 --apcs=interwork -O1 -Otime -I. -I..\BSP -I..\..\..\..\..\uCOS-II\Ports\arm-cortex-m3\Generic\RealView -I..\..\..\..\..\uCOS-II\Source -I..\..\..\..\..\CPU\ST\STM32\inc -I..\..\..\..\..\uC-CPU -I..\..\..\..\..\uC-CPU\Arm-Cortex-M3\RealView -I..\..\..\..\..\uC-LIB -I..\..\..\..\..\uC-Probe\Target\Plugins\uCOS-II -I..\..\..\..\..\uC-Probe\Target\Communication\Generic\Source -I..\..\..\..\..\uC-Probe\Target\Communication\Generic\RS-232\Ports\ST\STM32 -I..\..\..\..\..\uC-Probe\Target\Communication\Generic\RS-232\Source -I..\..\..\..\..\User\inc -I..\..\..\..\..\uCGUI\Config -I..\..\..\..\..\uCGUI\GUIDemo -I..\..\..\..\..\uCGUI\LCDDriver -I..\..\..\..\..\uCGUI\GUI\AntiAlias -I..\..\..\..\..\uCGUI\GUI\ConvertColor -I..\..\..\..\..\uCGUI\GUI\ConvertMono -I..\..\..\..\..\uCGUI\GUI\Core -I..\..\..\..\..\uCGUI\GUI\Font -I..\..\..\..\..\uCGUI\GUI\LCDDriver -I..\..\..\..\..\uCGUI\GUI\MemDev -I..\..\..\..\..\uCGUI\GUI\MultiLayer -I..\..\..\..\..\uCGUI\GUI\Widget -I..\..\..\..\..\uCGUI\GUI\WM -Id:\Keil-stm32\ARM\INC -Id:\Keil-stm32\ARM\INC\ST\STM32F10x -D__MICROLIB --omf_browse=.\rvmdk\lcdaa.crf ..\..\..\..\..\uCGUI\GUI\Core\LCDAA.c]
                          THUMB

                          AREA ||.text||, CODE, READONLY, ALIGN=2

                  LCD_AA_MixColors PROC
;;;61     */
;;;62     LCD_COLOR LCD_AA_MixColors(LCD_COLOR Color, LCD_COLOR BkColor, U8 Intens) {
000000  b430              PUSH     {r4,r5}
;;;63       /* Calc Color seperations for FgColor first */
;;;64       I32 R = (Color&0xff)*Intens;
000002  b2c3              UXTB     r3,r0
000004  fb03f502          MUL      r5,r3,r2
;;;65       I32 G = (Color&0xff00)*Intens;
000008  f400437f          AND      r3,r0,#0xff00
00000c  fb03fc02          MUL      r12,r3,r2
;;;66       I32 B = (Color&0xff0000)*Intens;
000010  f400007f          AND      r0,r0,#0xff0000
000014  fb00f402          MUL      r4,r0,r2
;;;67       /* Add Color seperations for BkColor */
;;;68       Intens = 15-Intens;
000018  f1c2000f          RSB      r0,r2,#0xf
00001c  b2c3              UXTB     r3,r0
;;;69       R += (BkColor&0xff)*Intens;
00001e  b2c8              UXTB     r0,r1
000020  fb005003          MLA      r0,r0,r3,r5
;;;70       G += (BkColor&0xff00)*Intens;
000024  f401427f          AND      r2,r1,#0xff00
000028  fb02c203          MLA      r2,r2,r3,r12
;;;71       B += (BkColor&0xff0000)*Intens;
00002c  f401017f          AND      r1,r1,#0xff0000
000030  fb014103          MLA      r1,r1,r3,r4
;;;72       R = (R/15)&0xff;
000034  f8dfc130          LDR      r12,|L1.360|
000038  2300              MOVS     r3,#0
00003a  461c              MOV      r4,r3
00003c  fbcc4000          SMLAL    r4,r0,r12,r0
000040  10c4              ASRS     r4,r0,#3
000042  eba470e0          SUB      r0,r4,r0,ASR #31
000046  b2c0              UXTB     r0,r0
;;;73       G = (G/15)&0xff00;
000048  461c              MOV      r4,r3
00004a  fbcc4202          SMLAL    r4,r2,r12,r2
00004e  10d4              ASRS     r4,r2,#3
000050  eba472e2          SUB      r2,r4,r2,ASR #31
000054  f402427f          AND      r2,r2,#0xff00
;;;74       B = (B/15)&0xff0000;
000058  fbcc3101          SMLAL    r3,r1,r12,r1
00005c  10cb              ASRS     r3,r1,#3
00005e  eba371e1          SUB      r1,r3,r1,ASR #31
000062  f401017f          AND      r1,r1,#0xff0000
;;;75       Color = R+G+B;
000066  4410              ADD      r0,r0,r2
000068  4408              ADD      r0,r0,r1
;;;76       return Color;
;;;77     }
00006a  bc30              POP      {r4,r5}
00006c  4770              BX       lr
;;;78     
                          ENDP

                  LCD_SetPixelAA PROC
;;;82     */
;;;83     void LCD_SetPixelAA(int x, int y, U8 Intens) {
00006e  e92d41f0          PUSH     {r4-r8,lr}
000072  4604              MOV      r4,r0
000074  460d              MOV      r5,r1
000076  4616              MOV      r6,r2
;;;84       if (Intens == 0)
000078  2e00              CMP      r6,#0
00007a  d032              BEQ      |L1.226|
;;;85         return;
;;;86       RETURN_IF_Y_OUT();
00007c  4f3b              LDR      r7,|L1.364|
00007e  f9b7000a          LDRSH    r0,[r7,#0xa]  ; GUI_Context
000082  42a8              CMP      r0,r5
000084  dc2d              BGT      |L1.226|
000086  f9b7000e          LDRSH    r0,[r7,#0xe]  ; GUI_Context
00008a  42a8              CMP      r0,r5
00008c  db29              BLT      |L1.226|
;;;87       RETURN_IF_X_OUT();
00008e  f9b70008          LDRSH    r0,[r7,#8]  ; GUI_Context
000092  42a0              CMP      r0,r4
000094  dc25              BGT      |L1.226|
000096  f9b7000c          LDRSH    r0,[r7,#0xc]  ; GUI_Context
00009a  42a0              CMP      r0,r4
00009c  db21              BLT      |L1.226|
00009e  4638              MOV      r0,r7                 ;86
;;;88       if (Intens >= 15) {
0000a0  2e0f              CMP      r6,#0xf
;;;89         LCDDEV_L0_SetPixelIndex(x,y, LCD_COLORINDEX);
0000a2  8840              LDRH     r0,[r0,#2]
0000a4  d307              BCC      |L1.182|
0000a6  6cf9              LDR      r1,[r7,#0x4c]  ; GUI_Context
0000a8  4602              MOV      r2,r0
0000aa  4620              MOV      r0,r4
0000ac  6a4b              LDR      r3,[r1,#0x24]
0000ae  4629              MOV      r1,r5
0000b0  e8bd41f0          POP      {r4-r8,lr}
0000b4  4718              BX       r3
                  |L1.182|
;;;90       } else {
;;;91         LCD_COLOR Color = LCD_Index2Color(LCD_COLORINDEX);
0000b6  f7fffffe          BL       LCD_Index2Color
0000ba  4680              MOV      r8,r0
;;;92         LCD_COLOR BkColor =  LCD_GetPixelColor(x,y);
0000bc  4629              MOV      r1,r5
0000be  4620              MOV      r0,r4
0000c0  f7fffffe          BL       LCD_GetPixelColor
;;;93         Color = LCD_AA_MixColors(Color, BkColor, Intens);
0000c4  4601              MOV      r1,r0
0000c6  4632              MOV      r2,r6
0000c8  4640              MOV      r0,r8
0000ca  f7fffffe          BL       LCD_AA_MixColors
;;;94         LCDDEV_L0_SetPixelIndex(x,y, LCD_Color2Index(Color));
0000ce  f7fffffe          BL       LCD_Color2Index
0000d2  6cf9              LDR      r1,[r7,#0x4c]  ; GUI_Context
0000d4  4602              MOV      r2,r0
0000d6  4620              MOV      r0,r4
0000d8  6a4b              LDR      r3,[r1,#0x24]
0000da  4629              MOV      r1,r5
0000dc  e8bd41f0          POP      {r4-r8,lr}
0000e0  4718              BX       r3
                  |L1.226|
;;;95       }
;;;96     }
0000e2  e8bd81f0          POP      {r4-r8,pc}
;;;97     
                          ENDP

                  LCD_SetPixelAA_NoTrans PROC
;;;101    */
;;;102    void LCD_SetPixelAA_NoTrans(int x, int y, U8 Intens) {
0000e6  e92d41f0          PUSH     {r4-r8,lr}
0000ea  4604              MOV      r4,r0
0000ec  460d              MOV      r5,r1
0000ee  4616              MOV      r6,r2
;;;103      RETURN_IF_Y_OUT();
0000f0  4f1e              LDR      r7,|L1.364|
0000f2  f9b7000a          LDRSH    r0,[r7,#0xa]  ; GUI_Context
0000f6  42a8              CMP      r0,r5
0000f8  dc33              BGT      |L1.354|
0000fa  f9b7000e          LDRSH    r0,[r7,#0xe]  ; GUI_Context
0000fe  42a8              CMP      r0,r5
000100  db2f              BLT      |L1.354|
;;;104      RETURN_IF_X_OUT();
000102  f9b70008          LDRSH    r0,[r7,#8]  ; GUI_Context
000106  42a0              CMP      r0,r4
000108  dc2b              BGT      |L1.354|
00010a  f9b7000c          LDRSH    r0,[r7,#0xc]  ; GUI_Context
00010e  42a0              CMP      r0,r4
000110  db27              BLT      |L1.354|
000112  4639              MOV      r1,r7                 ;103
;;;105      if (Intens == 0) {
;;;106        LCDDEV_L0_SetPixelIndex(x,y, LCD_BKCOLORINDEX);
000114  880a              LDRH     r2,[r1,#0]
000116  6cc8              LDR      r0,[r1,#0x4c]         ;105
000118  b1b6              CBZ      r6,|L1.328|
;;;107      } else if (Intens == 15) {
00011a  2e0f              CMP      r6,#0xf
00011c  d01a              BEQ      |L1.340|
;;;108        LCDDEV_L0_SetPixelIndex(x,y, LCD_COLORINDEX);
;;;109      } else {
;;;110        LCD_COLOR Color = LCD_AA_MixColors(LCD_Index2Color(LCD_COLORINDEX),
00011e  4610              MOV      r0,r2
000120  f7fffffe          BL       LCD_Index2Color
000124  4680              MOV      r8,r0
000126  8878              LDRH     r0,[r7,#2]  ; GUI_Context
000128  f7fffffe          BL       LCD_Index2Color
00012c  4632              MOV      r2,r6
00012e  4641              MOV      r1,r8
000130  f7fffffe          BL       LCD_AA_MixColors
;;;111                                       LCD_Index2Color(LCD_BKCOLORINDEX),
;;;112                                       Intens);
;;;113        LCDDEV_L0_SetPixelIndex(x,y,LCD_Color2Index(Color));
000134  f7fffffe          BL       LCD_Color2Index
000138  6cf9              LDR      r1,[r7,#0x4c]  ; GUI_Context
00013a  4602              MOV      r2,r0
00013c  4620              MOV      r0,r4
00013e  6a4b              LDR      r3,[r1,#0x24]
000140  4629              MOV      r1,r5
000142  e8bd41f0          POP      {r4-r8,lr}
000146  4718              BX       r3
                  |L1.328|
000148  6a43              LDR      r3,[r0,#0x24]         ;106
00014a  4629              MOV      r1,r5                 ;106
00014c  4620              MOV      r0,r4                 ;106
00014e  e8bd41f0          POP      {r4-r8,lr}            ;106
000152  4718              BX       r3                    ;106
                  |L1.340|
000154  6a43              LDR      r3,[r0,#0x24]         ;108
000156  887a              LDRH     r2,[r7,#2]            ;108  ; GUI_Context
000158  4629              MOV      r1,r5                 ;108
00015a  4620              MOV      r0,r4                 ;108
00015c  e8bd41f0          POP      {r4-r8,lr}            ;108
000160  4718              BX       r3                    ;108
                  |L1.354|
;;;114      }
;;;115    }
000162  e8bd81f0          POP      {r4-r8,pc}
;;;116    
                          ENDP

000166  0000              DCW      0x0000
                  |L1.360|
                          DCD      0x88888889
                  |L1.364|
                          DCD      GUI_Context
