; generated by ARM C/C++ Compiler, 4.1 [Build 481]
; commandline ArmCC [--debug -c --asm --interleave -o.\rvmdk\lcdrle4.o --depend=.\rvmdk\lcdrle4.d --cpu=Cortex-M3 --apcs=interwork -O1 -Otime -I. -I..\BSP -I..\..\..\..\..\uCOS-II\Ports\arm-cortex-m3\Generic\RealView -I..\..\..\..\..\uCOS-II\Source -I..\..\..\..\..\CPU\ST\STM32\inc -I..\..\..\..\..\uC-CPU -I..\..\..\..\..\uC-CPU\Arm-Cortex-M3\RealView -I..\..\..\..\..\uC-LIB -I..\..\..\..\..\uC-Probe\Target\Plugins\uCOS-II -I..\..\..\..\..\uC-Probe\Target\Communication\Generic\Source -I..\..\..\..\..\uC-Probe\Target\Communication\Generic\RS-232\Ports\ST\STM32 -I..\..\..\..\..\uC-Probe\Target\Communication\Generic\RS-232\Source -I..\..\..\..\..\User\inc -I..\..\..\..\..\uCGUI\Config -I..\..\..\..\..\uCGUI\GUIDemo -I..\..\..\..\..\uCGUI\LCDDriver -I..\..\..\..\..\uCGUI\GUI\AntiAlias -I..\..\..\..\..\uCGUI\GUI\ConvertColor -I..\..\..\..\..\uCGUI\GUI\ConvertMono -I..\..\..\..\..\uCGUI\GUI\Core -I..\..\..\..\..\uCGUI\GUI\Font -I..\..\..\..\..\uCGUI\GUI\LCDDriver -I..\..\..\..\..\uCGUI\GUI\MemDev -I..\..\..\..\..\uCGUI\GUI\MultiLayer -I..\..\..\..\..\uCGUI\GUI\Widget -I..\..\..\..\..\uCGUI\GUI\WM -Id:\Keil-stm32\ARM\INC -Id:\Keil-stm32\ARM\INC\ST\STM32F10x -D__MICROLIB --omf_browse=.\rvmdk\lcdrle4.crf ..\..\..\..\..\uCGUI\GUI\Core\LCDRLE4.c]
                          THUMB

                          AREA ||.text||, CODE, READONLY, ALIGN=2

                  _DrawBitmap_RLE4 PROC
;;;34     */
;;;35     static void _DrawBitmap_RLE4(int x0,int y0,int xsize, int ysize, const U8 GUI_UNI_PTR * pPixel, const LCD_LOGPALETTE GUI_UNI_PTR* pLogPal, int xMag, int yMag) {
000000  e92d4fff          PUSH     {r0-r11,lr}
000004  b089              SUB      sp,sp,#0x24
000006  4606              MOV      r6,r0
000008  f8dd9060          LDR      r9,[sp,#0x60]
00000c  f8dd8064          LDR      r8,[sp,#0x64]
000010  9817              LDR      r0,[sp,#0x5c]
000012  468a              MOV      r10,r1
;;;36       const LCD_PIXELINDEX* pTrans =NULL;
000014  f04f0b00          MOV      r11,#0
;;;37       char NoTrans = !(GUI_Context.DrawMode & LCD_DRAWMODE_TRANS);
000018  4a76              LDR      r2,|L1.500|
00001a  2301              MOVS     r3,#1
00001c  7c11              LDRB     r1,[r2,#0x10]  ; GUI_Context
00001e  ea230151          BIC      r1,r3,r1,LSR #1
000022  9105              STR      r1,[sp,#0x14]
;;;38       LCD_PIXELINDEX aColorIndex[2];
;;;39       LCD_PIXELINDEX PixelIndex;
;;;40       int xi,y;
;;;41       int xL, yL;
;;;42       char IsMagnified = ((yMag | xMag) != 1);
000024  ea480109          ORR      r1,r8,r9
000028  2901              CMP      r1,#1
00002a  d001              BEQ      |L1.48|
00002c  2101              MOVS     r1,#1
00002e  e000              B        |L1.50|
                  |L1.48|
000030  2100              MOVS     r1,#0
                  |L1.50|
000032  9103              STR      r1,[sp,#0xc]
;;;43       aColorIndex[0] = LCD_ACOLORINDEX[0];
000034  4a6f              LDR      r2,|L1.500|
000036  8811              LDRH     r1,[r2,#0]  ; GUI_Context
000038  f8ad1010          STRH     r1,[sp,#0x10]
00003c  9108              STR      r1,[sp,#0x20]
;;;44       aColorIndex[1] = LCD_ACOLORINDEX[1];
00003e  8851              LDRH     r1,[r2,#2]  ; GUI_Context
000040  f8ad1012          STRH     r1,[sp,#0x12]
000044  9107              STR      r1,[sp,#0x1c]
;;;45       /* Handle color translation */
;;;46       if ((pLogPal) && (pLogPal->pPalEntries)) {
000046  b130              CBZ      r0,|L1.86|
000048  6881              LDR      r1,[r0,#8]
00004a  b121              CBZ      r1,|L1.86|
;;;47         if ((pTrans = LCD_GetpPalConvTable(pLogPal)) == NULL) {
00004c  f7fffffe          BL       LCD_GetpPalConvTable
000050  ea5f0b00          MOVS     r11,r0
000054  d07d              BEQ      |L1.338|
                  |L1.86|
;;;48           return;
;;;49         }
;;;50       }
;;;51      /* Check if we can limit the number of lines due to clipping) */
;;;52       if (yMag == 1) {
000056  f1b80f01          CMP      r8,#1
00005a  d10a              BNE      |L1.114|
;;;53         if (ysize > GUI_Context.ClipRect.y1 - y0 + 1)
00005c  4865              LDR      r0,|L1.500|
00005e  990c              LDR      r1,[sp,#0x30]
000060  f9b0000e          LDRSH    r0,[r0,#0xe]  ; GUI_Context
000064  eba0000a          SUB      r0,r0,r10
000068  1c42              ADDS     r2,r0,#1
00006a  428a              CMP      r2,r1
00006c  da01              BGE      |L1.114|
;;;54           ysize = GUI_Context.ClipRect.y1 - y0 + 1;
00006e  1c40              ADDS     r0,r0,#1
000070  900c              STR      r0,[sp,#0x30]
                  |L1.114|
;;;55       }
;;;56       /* Repeat until we have reached bottom */
;;;57       for (xi=0, y = 0; y < ysize; ) {
000072  2400              MOVS     r4,#0
000074  2500              MOVS     r5,#0
000076  980c              LDR      r0,[sp,#0x30]
000078  2800              CMP      r0,#0
00007a  dd6b              BLE      |L1.340|
                  |L1.124|
;;;58         U8 Cmd,Data;
;;;59         Cmd= *pPixel++;
00007c  9816              LDR      r0,[sp,#0x58]
00007e  7800              LDRB     r0,[r0,#0]
000080  9002              STR      r0,[sp,#8]
000082  9816              LDR      r0,[sp,#0x58]
000084  1c40              ADDS     r0,r0,#1
;;;60         Data = *pPixel++;
000086  f8107b01          LDRB     r7,[r0],#1
00008a  9016              STR      r0,[sp,#0x58]
;;;61         if (Cmd) {
00008c  9802              LDR      r0,[sp,#8]
00008e  b3d0              CBZ      r0,|L1.262|
;;;62           LCD_SetColorIndex(pTrans ? *(pTrans+Data) : Data);
000090  f1bb0f00          CMP      r11,#0
000094  d002              BEQ      |L1.156|
000096  f83b0017          LDRH     r0,[r11,r7,LSL #1]
00009a  e000              B        |L1.158|
                  |L1.156|
00009c  4638              MOV      r0,r7
                  |L1.158|
00009e  f7fffffe          BL       LCD_SetColorIndex
;;;63           while (Cmd) {
;;;64             int xi1 = xi+Cmd;
;;;65             if (xi1>=xsize)
;;;66               xi1 = xsize;
;;;67             Cmd -= (xi1-xi);
;;;68             if (Data || NoTrans) {  /* Skip transparent pixels */
0000a2  9805              LDR      r0,[sp,#0x14]
0000a4  4338              ORRS     r0,r0,r7
0000a6  9006              STR      r0,[sp,#0x18]
                  |L1.168|
0000a8  9802              LDR      r0,[sp,#8]            ;64
0000aa  1827              ADDS     r7,r4,r0              ;64
0000ac  980b              LDR      r0,[sp,#0x2c]         ;65
0000ae  4287              CMP      r7,r0                 ;65
0000b0  db00              BLT      |L1.180|
0000b2  9f0b              LDR      r7,[sp,#0x2c]         ;66
                  |L1.180|
0000b4  9902              LDR      r1,[sp,#8]            ;67
0000b6  1b38              SUBS     r0,r7,r4              ;67
0000b8  1a09              SUBS     r1,r1,r0              ;67
0000ba  b2c9              UXTB     r1,r1                 ;67
0000bc  9102              STR      r1,[sp,#8]            ;67
0000be  9906              LDR      r1,[sp,#0x18]
0000c0  b1b9              CBZ      r1,|L1.242|
;;;69               if (IsMagnified) {
0000c2  9903              LDR      r1,[sp,#0xc]
0000c4  b171              CBZ      r1,|L1.228|
;;;70                 xL = xMag * xi + x0;
0000c6  fb096c04          MLA      r12,r9,r4,r6
;;;71                 yL = yMag * y + y0;
0000ca  fb08a105          MLA      r1,r8,r5,r10
;;;72                 LCD_FillRect(xL, yL, xL + xMag * (xi1 - xi) -1 , yL + yMag - 1);
0000ce  eb010208          ADD      r2,r1,r8
0000d2  1e53              SUBS     r3,r2,#1
0000d4  f1ac0201          SUB      r2,r12,#1
0000d8  fb092200          MLA      r2,r9,r0,r2
0000dc  4660              MOV      r0,r12
0000de  f7fffffe          BL       LCD_FillRect
0000e2  e006              B        |L1.242|
                  |L1.228|
;;;73               } else {
;;;74                 LCD_DrawHLine(x0+xi, y + y0, xi1+x0-1);
0000e4  19b8              ADDS     r0,r7,r6
0000e6  1e42              SUBS     r2,r0,#1
0000e8  eb05010a          ADD      r1,r5,r10
0000ec  1930              ADDS     r0,r6,r4
0000ee  f7fffffe          BL       LCD_DrawHLine
                  |L1.242|
;;;75               }
;;;76             }
;;;77             xi =xi1;
;;;78             if (xi1==xsize) {
0000f2  980b              LDR      r0,[sp,#0x2c]
0000f4  463c              MOV      r4,r7
0000f6  4287              CMP      r7,r0
0000f8  d101              BNE      |L1.254|
;;;79               y++;
0000fa  1c6d              ADDS     r5,r5,#1
;;;80               xi=0;
0000fc  2400              MOVS     r4,#0
                  |L1.254|
0000fe  9802              LDR      r0,[sp,#8]            ;63
000100  2800              CMP      r0,#0                 ;63
000102  d1d1              BNE      |L1.168|
000104  e069              B        |L1.474|
                  |L1.262|
000106  e7ff              B        |L1.264|
                  |L1.264|
;;;81             }
;;;82           }
;;;83         } else {
;;;84           while (Data--) {
000108  1e78              SUBS     r0,r7,#1
00010a  b2c0              UXTB     r0,r0
00010c  9001              STR      r0,[sp,#4]
00010e  b3ef              CBZ      r7,|L1.396|
                  |L1.272|
;;;85             U8 Index = *pPixel++;
000110  9816              LDR      r0,[sp,#0x58]
000112  f8107b01          LDRB     r7,[r0],#1
000116  9016              STR      r0,[sp,#0x58]
;;;86             if ((Index>>4) || NoTrans) {  /* Skip transparent pixels */
000118  9805              LDR      r0,[sp,#0x14]
00011a  ea501017          ORRS     r0,r0,r7,LSR #4
00011e  d021              BEQ      |L1.356|
;;;87               PixelIndex = pTrans ? *(pTrans+(Index>>4)) : (Index>>4);
000120  f1bb0f00          CMP      r11,#0
000124  d003              BEQ      |L1.302|
000126  0938              LSRS     r0,r7,#4
000128  f83b0010          LDRH     r0,[r11,r0,LSL #1]
00012c  e000              B        |L1.304|
                  |L1.302|
00012e  0938              LSRS     r0,r7,#4
                  |L1.304|
;;;88               if (IsMagnified) {
000130  9903              LDR      r1,[sp,#0xc]
000132  b181              CBZ      r1,|L1.342|
;;;89                 LCD_SetColorIndex(PixelIndex);
000134  f7fffffe          BL       LCD_SetColorIndex
;;;90                 xL = xMag * xi + x0;
000138  fb096004          MLA      r0,r9,r4,r6
;;;91                 yL = yMag * y + y0;
00013c  fb08a105          MLA      r1,r8,r5,r10
;;;92                 LCD_FillRect(xL, yL, xL + xMag -1 , yL + yMag - 1);
000140  eb010208          ADD      r2,r1,r8
000144  1e53              SUBS     r3,r2,#1
000146  eb000209          ADD      r2,r0,r9
00014a  1e52              SUBS     r2,r2,#1
00014c  f7fffffe          BL       LCD_FillRect
000150  e008              B        |L1.356|
                  |L1.338|
000152  e04b              B        |L1.492|
                  |L1.340|
000154  e045              B        |L1.482|
                  |L1.342|
;;;93               } else {
;;;94                 LCD_SetPixelIndex(x0+xi, y + y0, PixelIndex);
000156  1933              ADDS     r3,r6,r4
000158  4602              MOV      r2,r0
00015a  eb05010a          ADD      r1,r5,r10
00015e  4618              MOV      r0,r3
000160  f7fffffe          BL       LCD_SetPixelIndex
                  |L1.356|
;;;95               }
;;;96             }
;;;97             if (++xi >= xsize) {
000164  980b              LDR      r0,[sp,#0x2c]
000166  1c64              ADDS     r4,r4,#1
000168  4284              CMP      r4,r0
00016a  db01              BLT      |L1.368|
;;;98               xi=0; y++;
00016c  2400              MOVS     r4,#0
00016e  1c6d              ADDS     r5,r5,#1
                  |L1.368|
;;;99             }
;;;100            if (Data-- == 0)
000170  9801              LDR      r0,[sp,#4]
000172  1e41              SUBS     r1,r0,#1
000174  b2c9              UXTB     r1,r1
000176  9101              STR      r1,[sp,#4]
000178  b140              CBZ      r0,|L1.396|
;;;101              break;
;;;102            if ((Index&15) || NoTrans) {  /* Skip transparent pixels */
00017a  9905              LDR      r1,[sp,#0x14]
00017c  f007000f          AND      r0,r7,#0xf
000180  4301              ORRS     r1,r1,r0
000182  d01e              BEQ      |L1.450|
;;;103              PixelIndex = pTrans ? *(pTrans+(Index&15)) : (Index&15);
000184  f1bb0f00          CMP      r11,#0
000188  d003              BEQ      |L1.402|
00018a  e000              B        |L1.398|
                  |L1.396|
00018c  e025              B        |L1.474|
                  |L1.398|
00018e  f83b0010          LDRH     r0,[r11,r0,LSL #1]
                  |L1.402|
;;;104              if (IsMagnified) {
000192  9903              LDR      r1,[sp,#0xc]
000194  b171              CBZ      r1,|L1.436|
;;;105                LCD_SetColorIndex(PixelIndex);
000196  f7fffffe          BL       LCD_SetColorIndex
;;;106                xL = xMag * xi + x0;
00019a  fb096004          MLA      r0,r9,r4,r6
;;;107                yL = yMag * y + y0;
00019e  fb08a105          MLA      r1,r8,r5,r10
;;;108                LCD_FillRect(xL, yL, xL + xMag -1 , yL + yMag - 1);
0001a2  eb010208          ADD      r2,r1,r8
0001a6  1e53              SUBS     r3,r2,#1
0001a8  eb000209          ADD      r2,r0,r9
0001ac  1e52              SUBS     r2,r2,#1
0001ae  f7fffffe          BL       LCD_FillRect
0001b2  e006              B        |L1.450|
                  |L1.436|
;;;109              } else {
;;;110                LCD_SetPixelIndex(x0+xi, y + y0, PixelIndex);
0001b4  1933              ADDS     r3,r6,r4
0001b6  4602              MOV      r2,r0
0001b8  eb05010a          ADD      r1,r5,r10
0001bc  4618              MOV      r0,r3
0001be  f7fffffe          BL       LCD_SetPixelIndex
                  |L1.450|
;;;111              }
;;;112            }
;;;113            if (++xi >= xsize) {
0001c2  980b              LDR      r0,[sp,#0x2c]
0001c4  1c64              ADDS     r4,r4,#1
0001c6  4284              CMP      r4,r0
0001c8  db01              BLT      |L1.462|
;;;114              xi=0; y++;
0001ca  2400              MOVS     r4,#0
0001cc  1c6d              ADDS     r5,r5,#1
                  |L1.462|
0001ce  9801              LDR      r0,[sp,#4]            ;84
0001d0  1e41              SUBS     r1,r0,#1              ;84
0001d2  b2c9              UXTB     r1,r1                 ;84
0001d4  9101              STR      r1,[sp,#4]            ;84
0001d6  2800              CMP      r0,#0                 ;84
0001d8  d19a              BNE      |L1.272|
                  |L1.474|
0001da  980c              LDR      r0,[sp,#0x30]         ;57
0001dc  4285              CMP      r5,r0                 ;57
0001de  f6ffaf4d          BLT      |L1.124|
                  |L1.482|
;;;115            }
;;;116          }
;;;117        }
;;;118      }
;;;119      LCD_ACOLORINDEX[0] = aColorIndex[0];
0001e2  4804              LDR      r0,|L1.500|
0001e4  9908              LDR      r1,[sp,#0x20]
0001e6  8001              STRH     r1,[r0,#0]
;;;120      LCD_ACOLORINDEX[1] = aColorIndex[1];
0001e8  9907              LDR      r1,[sp,#0x1c]
0001ea  8041              STRH     r1,[r0,#2]
                  |L1.492|
;;;121    }
0001ec  b00d              ADD      sp,sp,#0x34
0001ee  e8bd8ff0          POP      {r4-r11,pc}
;;;122    
                          ENDP

0001f2  0000              DCW      0x0000
                  |L1.500|
                          DCD      GUI_Context

                          AREA ||.constdata||, DATA, READONLY, ALIGN=2

                  GUI_BitmapMethodsRLE4
                          DCD      _DrawBitmap_RLE4
                          DCD      0x00000000
