; generated by ARM C/C++ Compiler, 4.1 [Build 481]
; commandline ArmCC [--debug -c --asm --interleave -o.\rvmdk\listview_insertrow.o --depend=.\rvmdk\listview_insertrow.d --cpu=Cortex-M3 --apcs=interwork -O1 -Otime -I. -I..\BSP -I..\..\..\..\..\uCOS-II\Ports\arm-cortex-m3\Generic\RealView -I..\..\..\..\..\uCOS-II\Source -I..\..\..\..\..\CPU\ST\STM32\inc -I..\..\..\..\..\uC-CPU -I..\..\..\..\..\uC-CPU\Arm-Cortex-M3\RealView -I..\..\..\..\..\uC-LIB -I..\..\..\..\..\uC-Probe\Target\Plugins\uCOS-II -I..\..\..\..\..\uC-Probe\Target\Communication\Generic\Source -I..\..\..\..\..\uC-Probe\Target\Communication\Generic\RS-232\Ports\ST\STM32 -I..\..\..\..\..\uC-Probe\Target\Communication\Generic\RS-232\Source -I..\..\..\..\..\User\inc -I..\..\..\..\..\uCGUI\Config -I..\..\..\..\..\uCGUI\GUIDemo -I..\..\..\..\..\uCGUI\LCDDriver -I..\..\..\..\..\uCGUI\GUI\AntiAlias -I..\..\..\..\..\uCGUI\GUI\ConvertColor -I..\..\..\..\..\uCGUI\GUI\ConvertMono -I..\..\..\..\..\uCGUI\GUI\Core -I..\..\..\..\..\uCGUI\GUI\Font -I..\..\..\..\..\uCGUI\GUI\LCDDriver -I..\..\..\..\..\uCGUI\GUI\MemDev -I..\..\..\..\..\uCGUI\GUI\MultiLayer -I..\..\..\..\..\uCGUI\GUI\Widget -I..\..\..\..\..\uCGUI\GUI\WM -Id:\Keil-stm32\ARM\INC -Id:\Keil-stm32\ARM\INC\ST\STM32F10x -D__MICROLIB --omf_browse=.\rvmdk\listview_insertrow.crf ..\..\..\..\..\uCGUI\GUI\Widget\LISTVIEW_InsertRow.c]
                          THUMB

                          AREA ||.text||, CODE, READONLY, ALIGN=1

                  LISTVIEW_InsertRow PROC
;;;35     */
;;;36     int LISTVIEW_InsertRow(LISTVIEW_Handle hObj, unsigned Index, const GUI_ConstString * ppText) {
000000  e92d4ff7          PUSH     {r0-r2,r4-r11,lr}
000004  b082              SUB      sp,sp,#8
000006  468a              MOV      r10,r1
000008  4614              MOV      r4,r2
;;;37       int r = 0;
00000a  f04f0800          MOV      r8,#0
;;;38       if (hObj) {
00000e  9802              LDR      r0,[sp,#8]
000010  b3c0              CBZ      r0,|L1.132|
;;;39         unsigned NumItems;
;;;40         LISTVIEW_Obj* pObj;
;;;41         WM_LOCK();
000012  f7fffffe          BL       GUI_Lock
;;;42         pObj = LISTVIEW_H2P(hObj);
000016  9802              LDR      r0,[sp,#8]
000018  f7fffffe          BL       GUI_ALLOC_h2p
00001c  4605              MOV      r5,r0
;;;43         NumItems = GUI_ARRAY_GetNumItems(&pObj->RowArray);
00001e  f105002a          ADD      r0,r5,#0x2a
000022  f7fffffe          BL       GUI_ARRAY_GetNumItems
;;;44         if (Index < NumItems) {
000026  4582              CMP      r10,r0
000028  d273              BCS      |L1.274|
;;;45           /* Insert new row */
;;;46           if (GUI_ARRAY_InsertItem(&pObj->RowArray, Index, sizeof(LISTVIEW_ROW))) {
00002a  220c              MOVS     r2,#0xc
00002c  4651              MOV      r1,r10
00002e  f105002a          ADD      r0,r5,#0x2a
000032  f7fffffe          BL       GUI_ARRAY_InsertItem
000036  b3f0              CBZ      r0,|L1.182|
;;;47             LISTVIEW_ROW* pRow;
;;;48             int i, NumColumns, NumBytes;
;;;49             const char* s;
;;;50             pObj       = LISTVIEW_H2P(hObj); /* Restore after allocating memory */
000038  9802              LDR      r0,[sp,#8]
00003a  f7fffffe          BL       GUI_ALLOC_h2p
00003e  4683              MOV      r11,r0
;;;51             NumColumns = LISTVIEW__GetNumColumns(pObj);
000040  4658              MOV      r0,r11
000042  f7fffffe          BL       LISTVIEW__GetNumColumns
000046  4681              MOV      r9,r0
;;;52             pRow       = (LISTVIEW_ROW*) GUI_ARRAY_GetpItem(&pObj->RowArray, Index);
000048  4651              MOV      r1,r10
00004a  f10b002a          ADD      r0,r11,#0x2a
00004e  f7fffffe          BL       GUI_ARRAY_GetpItem
000052  9001              STR      r0,[sp,#4]
;;;53             GUI_ARRAY_CREATE(&pRow->CellArray);
;;;54             /* Add columns for the new row */
;;;55             for (i = 0; i < NumColumns; i++) {
000054  2500              MOVS     r5,#0
000056  f1b90f00          CMP      r9,#0
00005a  dd27              BLE      |L1.172|
                  |L1.92|
;;;56               LISTVIEW_CELL* pCell;
;;;57               s = (ppText) ? *ppText++ : 0;
00005c  b114              CBZ      r4,|L1.100|
00005e  f8547b04          LDR      r7,[r4],#4
000062  e000              B        |L1.102|
                  |L1.100|
000064  2700              MOVS     r7,#0
                  |L1.102|
;;;58               if (s == 0) {
000066  b907              CBNZ     r7,|L1.106|
;;;59                 ppText = 0;
000068  2400              MOVS     r4,#0
                  |L1.106|
;;;60               }
;;;61               NumBytes = GUI__strlen(s) + 1;
00006a  4638              MOV      r0,r7
00006c  f7fffffe          BL       GUI__strlen
000070  1c46              ADDS     r6,r0,#1
;;;62               if (GUI_ARRAY_AddItem(&pRow->CellArray, NULL, sizeof(LISTVIEW_CELL) + NumBytes)) {
000072  1d32              ADDS     r2,r6,#4
000074  2100              MOVS     r1,#0
000076  9801              LDR      r0,[sp,#4]
000078  f7fffffe          BL       GUI_ARRAY_AddItem
00007c  b118              CBZ      r0,|L1.134|
;;;63                 r = 1;
00007e  f04f0801          MOV      r8,#1
;;;64                 break;
000082  e013              B        |L1.172|
                  |L1.132|
000084  e04c              B        |L1.288|
                  |L1.134|
;;;65               }
;;;66               pRow  = (LISTVIEW_ROW*) GUI_ARRAY_GetpItem(&pObj->RowArray, Index); /* Restore after allocating memory */
000086  4651              MOV      r1,r10
000088  f10b002a          ADD      r0,r11,#0x2a
00008c  f7fffffe          BL       GUI_ARRAY_GetpItem
000090  9001              STR      r0,[sp,#4]
;;;67               pCell = (LISTVIEW_CELL*) GUI_ARRAY_GetpItem(&pRow->CellArray, i);
000092  4629              MOV      r1,r5
000094  9801              LDR      r0,[sp,#4]
000096  f7fffffe          BL       GUI_ARRAY_GetpItem
;;;68               if (NumBytes > 1) {
00009a  2e01              CMP      r6,#1
00009c  dd03              BLE      |L1.166|
;;;69                 strcpy(pCell->acText, s);
00009e  4639              MOV      r1,r7
0000a0  1c80              ADDS     r0,r0,#2
0000a2  f7fffffe          BL       strcpy
                  |L1.166|
0000a6  1c6d              ADDS     r5,r5,#1              ;55
0000a8  454d              CMP      r5,r9                 ;55
0000aa  dbd7              BLT      |L1.92|
                  |L1.172|
;;;70               }
;;;71             }
;;;72             pObj = LISTVIEW_H2P(hObj); /* Restore after allocating memory */
0000ac  9802              LDR      r0,[sp,#8]
0000ae  f7fffffe          BL       GUI_ALLOC_h2p
0000b2  4604              MOV      r4,r0
;;;73             if (pObj->SortIndex < 0) {
0000b4  e000              B        |L1.184|
                  |L1.182|
0000b6  e029              B        |L1.268|
                  |L1.184|
0000b8  6ea0              LDR      r0,[r4,#0x68]
0000ba  2800              CMP      r0,#0
0000bc  da07              BGE      |L1.206|
;;;74               if ((int)Index < LISTVIEW__GetSel(pObj)) {
0000be  4620              MOV      r0,r4
0000c0  f7fffffe          BL       LISTVIEW__GetSel
0000c4  4550              CMP      r0,r10
0000c6  dd02              BLE      |L1.206|
;;;75                 LISTVIEW_IncSel(hObj);
0000c8  9802              LDR      r0,[sp,#8]
0000ca  f7fffffe          BL       LISTVIEW_IncSel
                  |L1.206|
;;;76               }
;;;77             }
;;;78             pObj->IsPresorted = 0;
0000ce  2000              MOVS     r0,#0
0000d0  f8840095          STRB     r0,[r4,#0x95]
;;;79             if (LISTVIEW__UpdateScrollParas(hObj, pObj)) {
0000d4  4621              MOV      r1,r4
0000d6  9802              LDR      r0,[sp,#8]
0000d8  f7fffffe          BL       LISTVIEW__UpdateScrollParas
0000dc  b120              CBZ      r0,|L1.232|
;;;80               LISTVIEW__InvalidateInsideArea(hObj, pObj);
0000de  4621              MOV      r1,r4
0000e0  9802              LDR      r0,[sp,#8]
0000e2  f7fffffe          BL       LISTVIEW__InvalidateInsideArea
0000e6  e019              B        |L1.284|
                  |L1.232|
;;;81             } else {
;;;82               if (pObj->hSort && (pObj->SortIndex >= 0)) {
0000e8  f8b40092          LDRH     r0,[r4,#0x92]
0000ec  b138              CBZ      r0,|L1.254|
0000ee  6ea0              LDR      r0,[r4,#0x68]
0000f0  2800              CMP      r0,#0
0000f2  db04              BLT      |L1.254|
;;;83                 LISTVIEW__InvalidateInsideArea(hObj, pObj);
0000f4  4621              MOV      r1,r4
0000f6  9802              LDR      r0,[sp,#8]
0000f8  f7fffffe          BL       LISTVIEW__InvalidateInsideArea
0000fc  e00e              B        |L1.284|
                  |L1.254|
;;;84               } else {
;;;85                 LISTVIEW__InvalidateRowAndBelow(hObj, pObj, Index);
0000fe  4652              MOV      r2,r10
000100  4621              MOV      r1,r4
000102  9802              LDR      r0,[sp,#8]
000104  f7fffffe          BL       LISTVIEW__InvalidateRowAndBelow
000108  e008              B        |L1.284|
00010a  e002              B        |L1.274|
                  |L1.268|
;;;86               }
;;;87             }
;;;88           } else {
;;;89             r = 1;
00010c  f04f0801          MOV      r8,#1
000110  e004              B        |L1.284|
                  |L1.274|
;;;90           }
;;;91         } else {
;;;92           /* Append new row */
;;;93           r = LISTVIEW_AddRow(hObj, ppText);
000112  4621              MOV      r1,r4
000114  9802              LDR      r0,[sp,#8]
000116  f7fffffe          BL       LISTVIEW_AddRow
00011a  4680              MOV      r8,r0
                  |L1.284|
;;;94         }
;;;95         WM_UNLOCK();
00011c  f7fffffe          BL       GUI_Unlock
                  |L1.288|
;;;96       }
;;;97       return r;
;;;98     }
000120  b005              ADD      sp,sp,#0x14
000122  4640              MOV      r0,r8                 ;97
000124  e8bd8ff0          POP      {r4-r11,pc}
;;;99     
                          ENDP

