; generated by ARM C/C++ Compiler, 4.1 [Build 481]
; commandline ArmCC [--debug -c --asm --interleave -o.\rvmdk\listview_deleterow.o --depend=.\rvmdk\listview_deleterow.d --cpu=Cortex-M3 --apcs=interwork -O1 -Otime -I. -I..\BSP -I..\..\..\..\..\uCOS-II\Ports\arm-cortex-m3\Generic\RealView -I..\..\..\..\..\uCOS-II\Source -I..\..\..\..\..\CPU\ST\STM32\inc -I..\..\..\..\..\uC-CPU -I..\..\..\..\..\uC-CPU\Arm-Cortex-M3\RealView -I..\..\..\..\..\uC-LIB -I..\..\..\..\..\uC-Probe\Target\Plugins\uCOS-II -I..\..\..\..\..\uC-Probe\Target\Communication\Generic\Source -I..\..\..\..\..\uC-Probe\Target\Communication\Generic\RS-232\Ports\ST\STM32 -I..\..\..\..\..\uC-Probe\Target\Communication\Generic\RS-232\Source -I..\..\..\..\..\User\inc -I..\..\..\..\..\uCGUI\Config -I..\..\..\..\..\uCGUI\GUIDemo -I..\..\..\..\..\uCGUI\LCDDriver -I..\..\..\..\..\uCGUI\GUI\AntiAlias -I..\..\..\..\..\uCGUI\GUI\ConvertColor -I..\..\..\..\..\uCGUI\GUI\ConvertMono -I..\..\..\..\..\uCGUI\GUI\Core -I..\..\..\..\..\uCGUI\GUI\Font -I..\..\..\..\..\uCGUI\GUI\LCDDriver -I..\..\..\..\..\uCGUI\GUI\MemDev -I..\..\..\..\..\uCGUI\GUI\MultiLayer -I..\..\..\..\..\uCGUI\GUI\Widget -I..\..\..\..\..\uCGUI\GUI\WM -Id:\Keil-stm32\ARM\INC -Id:\Keil-stm32\ARM\INC\ST\STM32F10x -D__MICROLIB --omf_browse=.\rvmdk\listview_deleterow.crf ..\..\..\..\..\uCGUI\GUI\Widget\LISTVIEW_DeleteRow.c]
                          THUMB

                          AREA ||.text||, CODE, READONLY, ALIGN=1

                  LISTVIEW__InvalidateRowAndBelow PROC
;;;33     */
;;;34     void LISTVIEW__InvalidateRowAndBelow(LISTVIEW_Handle hObj, LISTVIEW_Obj* pObj, int Sel) {
000000  e92d41f0          PUSH     {r4-r8,lr}
000004  b082              SUB      sp,sp,#8
000006  4680              MOV      r8,r0
000008  460c              MOV      r4,r1
00000a  4615              MOV      r5,r2
;;;35       if (Sel >= 0) {
00000c  2d00              CMP      r5,#0
00000e  db19              BLT      |L1.68|
;;;36         GUI_RECT Rect;
;;;37         int HeaderHeight, RowDistY;
;;;38         HeaderHeight = HEADER_GetHeight(pObj->hHeader);
000010  f9b40028          LDRSH    r0,[r4,#0x28]
000014  f7fffffe          BL       HEADER_GetHeight
000018  4606              MOV      r6,r0
;;;39         RowDistY     = LISTVIEW__GetRowDistY(pObj);
00001a  4620              MOV      r0,r4
00001c  f7fffffe          BL       LISTVIEW__GetRowDistY
000020  4607              MOV      r7,r0
;;;40         WM_GetInsideRectExScrollbar(hObj, &Rect);
000022  4669              MOV      r1,sp
000024  4640              MOV      r0,r8
000026  f7fffffe          BL       WM_GetInsideRectExScrollbar
;;;41         Rect.y0 += HeaderHeight + (Sel - pObj->ScrollStateV.v) * RowDistY;
00002a  6fe1              LDR      r1,[r4,#0x7c]
00002c  f9bd0002          LDRSH    r0,[sp,#2]
000030  1a69              SUBS     r1,r5,r1
000032  fb010007          MLA      r0,r1,r7,r0
000036  4430              ADD      r0,r0,r6
000038  f8ad0002          STRH     r0,[sp,#2]
;;;42         WM_InvalidateRect(hObj, &Rect);
00003c  4669              MOV      r1,sp
00003e  4640              MOV      r0,r8
000040  f7fffffe          BL       WM_InvalidateRect
                  |L1.68|
;;;43       }
;;;44     }
000044  b002              ADD      sp,sp,#8
000046  e8bd81f0          POP      {r4-r8,pc}
;;;45     
                          ENDP

                  LISTVIEW_DeleteRow PROC
;;;55     */
;;;56     void LISTVIEW_DeleteRow(LISTVIEW_Handle hObj, unsigned Index) {
00004a  e92d47f0          PUSH     {r4-r10,lr}
00004e  4680              MOV      r8,r0
000050  460e              MOV      r6,r1
;;;57       if (hObj) {
000052  f1b80f00          CMP      r8,#0
000056  d05e              BEQ      |L1.278|
;;;58         LISTVIEW_Obj* pObj;
;;;59         unsigned NumRows;
;;;60         WM_LOCK();
000058  f7fffffe          BL       GUI_Lock
;;;61         pObj = LISTVIEW_H2P(hObj);
00005c  4640              MOV      r0,r8
00005e  f7fffffe          BL       GUI_ALLOC_h2p
000062  4604              MOV      r4,r0
;;;62         NumRows = LISTVIEW__GetNumRows(pObj);
000064  4620              MOV      r0,r4
000066  f7fffffe          BL       LISTVIEW__GetNumRows
;;;63         if (Index < NumRows) {
00006a  4286              CMP      r6,r0
00006c  d24f              BCS      |L1.270|
;;;64           unsigned NumColumns, i;
;;;65           LISTVIEW_ROW* pRow;
;;;66           pRow = (LISTVIEW_ROW*) GUI_ARRAY_GetpItem(&pObj->RowArray, Index);
00006e  4631              MOV      r1,r6
000070  f104002a          ADD      r0,r4,#0x2a
000074  f7fffffe          BL       GUI_ARRAY_GetpItem
000078  4681              MOV      r9,r0
;;;67           /* Delete attached info items */
;;;68           NumColumns = LISTVIEW__GetNumColumns(pObj);
00007a  4620              MOV      r0,r4
00007c  f7fffffe          BL       LISTVIEW__GetNumColumns
000080  4607              MOV      r7,r0
;;;69           for (i = 0; i < NumColumns; i++) {
000082  2500              MOVS     r5,#0
000084  2f00              CMP      r7,#0
000086  d90c              BLS      |L1.162|
                  |L1.136|
;;;70             LISTVIEW_CELL* pCell;
;;;71             pCell = (LISTVIEW_CELL*) GUI_ARRAY_GetpItem(&pRow->CellArray, i);
000088  4629              MOV      r1,r5
00008a  4648              MOV      r0,r9
00008c  f7fffffe          BL       GUI_ARRAY_GetpItem
;;;72             if (pCell) {
000090  b120              CBZ      r0,|L1.156|
;;;73               if (pCell->hCellInfo) {
000092  f9b00000          LDRSH    r0,[r0,#0]
000096  b108              CBZ      r0,|L1.156|
;;;74                 GUI_ALLOC_Free(pCell->hCellInfo);
000098  f7fffffe          BL       GUI_ALLOC_Free
                  |L1.156|
00009c  1c6d              ADDS     r5,r5,#1              ;69
00009e  42bd              CMP      r5,r7                 ;69
0000a0  d3f2              BCC      |L1.136|
                  |L1.162|
;;;75               }
;;;76             }
;;;77           }
;;;78           /* Delete row */
;;;79           GUI_ARRAY_Delete(&pRow->CellArray);
0000a2  4648              MOV      r0,r9
0000a4  f7fffffe          BL       GUI_ARRAY_Delete
;;;80           GUI_ARRAY_DeleteItem(&pObj->RowArray, Index);
0000a8  4631              MOV      r1,r6
0000aa  f104002a          ADD      r0,r4,#0x2a
0000ae  f7fffffe          BL       GUI_ARRAY_DeleteItem
;;;81           /* Adjust properties */
;;;82           if (pObj->Sel == (int)Index) {
0000b2  6e20              LDR      r0,[r4,#0x60]
;;;83             pObj->Sel = -1;
0000b4  f04f35ff          MOV      r5,#0xffffffff
0000b8  42b0              CMP      r0,r6                 ;82
0000ba  d101              BNE      |L1.192|
0000bc  6625              STR      r5,[r4,#0x60]
0000be  e014              B        |L1.234|
                  |L1.192|
;;;84           } else if (pObj->SortIndex < 0) {
0000c0  6ea1              LDR      r1,[r4,#0x68]
0000c2  2900              CMP      r1,#0
0000c4  da04              BGE      |L1.208|
;;;85             if (pObj->Sel > (int)Index) {
0000c6  42b0              CMP      r0,r6
0000c8  dd0f              BLE      |L1.234|
;;;86               pObj->Sel--;
0000ca  1e40              SUBS     r0,r0,#1
0000cc  6620              STR      r0,[r4,#0x60]
0000ce  e00c              B        |L1.234|
                  |L1.208|
;;;87             }
;;;88           } else {
;;;89             while (pObj->Sel >= (int)LISTVIEW__GetNumRows(pObj)) {
0000d0  4620              MOV      r0,r4
0000d2  f7fffffe          BL       LISTVIEW__GetNumRows
0000d6  6e21              LDR      r1,[r4,#0x60]
0000d8  4288              CMP      r0,r1
0000da  dc06              BGT      |L1.234|
                  |L1.220|
;;;90               pObj->Sel = -1;
0000dc  6625              STR      r5,[r4,#0x60]
0000de  4620              MOV      r0,r4                 ;89
0000e0  f7fffffe          BL       LISTVIEW__GetNumRows
0000e4  6e21              LDR      r1,[r4,#0x60]         ;89
0000e6  4288              CMP      r0,r1                 ;89
0000e8  ddf8              BLE      |L1.220|
                  |L1.234|
;;;91             }
;;;92           }
;;;93           pObj->IsPresorted = 0;
0000ea  2000              MOVS     r0,#0
0000ec  f8840095          STRB     r0,[r4,#0x95]
;;;94           if (LISTVIEW__UpdateScrollParas(hObj, pObj)) {
0000f0  4621              MOV      r1,r4
0000f2  4640              MOV      r0,r8
0000f4  f7fffffe          BL       LISTVIEW__UpdateScrollParas
0000f8  b120              CBZ      r0,|L1.260|
;;;95             LISTVIEW__InvalidateInsideArea(hObj, pObj);
0000fa  4621              MOV      r1,r4
0000fc  4640              MOV      r0,r8
0000fe  f7fffffe          BL       LISTVIEW__InvalidateInsideArea
000102  e004              B        |L1.270|
                  |L1.260|
;;;96           } else {
;;;97             LISTVIEW__InvalidateRowAndBelow(hObj, pObj, Index);
000104  4632              MOV      r2,r6
000106  4621              MOV      r1,r4
000108  4640              MOV      r0,r8
00010a  f7fffffe          BL       LISTVIEW__InvalidateRowAndBelow
                  |L1.270|
;;;98           }
;;;99         }
;;;100        WM_UNLOCK();
00010e  e8bd47f0          POP      {r4-r10,lr}
000112  f7ffbffe          B.W      GUI_Unlock
                  |L1.278|
;;;101      }
;;;102    }
000116  e8bd87f0          POP      {r4-r10,pc}
;;;103    
                          ENDP

