; generated by ARM C/C++ Compiler, 4.1 [Build 481]
; commandline ArmCC [--debug -c --asm --interleave -o.\rvmdk\widget_effect_3d.o --depend=.\rvmdk\widget_effect_3d.d --cpu=Cortex-M3 --apcs=interwork -O1 -Otime -I. -I..\BSP -I..\..\..\..\..\uCOS-II\Ports\arm-cortex-m3\Generic\RealView -I..\..\..\..\..\uCOS-II\Source -I..\..\..\..\..\CPU\ST\STM32\inc -I..\..\..\..\..\uC-CPU -I..\..\..\..\..\uC-CPU\Arm-Cortex-M3\RealView -I..\..\..\..\..\uC-LIB -I..\..\..\..\..\uC-Probe\Target\Plugins\uCOS-II -I..\..\..\..\..\uC-Probe\Target\Communication\Generic\Source -I..\..\..\..\..\uC-Probe\Target\Communication\Generic\RS-232\Ports\ST\STM32 -I..\..\..\..\..\uC-Probe\Target\Communication\Generic\RS-232\Source -I..\..\..\..\..\User\inc -I..\..\..\..\..\uCGUI\Config -I..\..\..\..\..\uCGUI\GUIDemo -I..\..\..\..\..\uCGUI\LCDDriver -I..\..\..\..\..\uCGUI\GUI\AntiAlias -I..\..\..\..\..\uCGUI\GUI\ConvertColor -I..\..\..\..\..\uCGUI\GUI\ConvertMono -I..\..\..\..\..\uCGUI\GUI\Core -I..\..\..\..\..\uCGUI\GUI\Font -I..\..\..\..\..\uCGUI\GUI\LCDDriver -I..\..\..\..\..\uCGUI\GUI\MemDev -I..\..\..\..\..\uCGUI\GUI\MultiLayer -I..\..\..\..\..\uCGUI\GUI\Widget -I..\..\..\..\..\uCGUI\GUI\WM -Id:\Keil-stm32\ARM\INC -Id:\Keil-stm32\ARM\INC\ST\STM32F10x -D__MICROLIB --omf_browse=.\rvmdk\widget_effect_3d.crf ..\..\..\..\..\uCGUI\GUI\Widget\WIDGET_Effect_3D.c]
                          THUMB

                          AREA ||.text||, CODE, READONLY, ALIGN=2

                  _WIDGET_EFFECT_3D_DrawUpRect PROC
;;;54     */
;;;55     static void _WIDGET_EFFECT_3D_DrawUpRect(const GUI_RECT* pRect) {
000000  b5f0              PUSH     {r4-r7,lr}
000002  b083              SUB      sp,sp,#0xc
;;;56       GUI_RECT r;
;;;57     /* Saving of context no longer required ... Speeds up the system
;;;58       GUI_CONTEXT Context;
;;;59       GUI_SaveContext(&Context);
;;;60     */
;;;61       r = *pRect;
000004  6801              LDR      r1,[r0,#0]
000006  9100              STR      r1,[sp,#0]
000008  6840              LDR      r0,[r0,#4]
00000a  9001              STR      r0,[sp,#4]
;;;62       LCD_SetColor(0x000000);
00000c  2000              MOVS     r0,#0
00000e  f7fffffe          BL       LCD_SetColor
;;;63       GUI_DrawRect(r.x0, r.y0, r.x1, r.y1);          /* Draw rectangle around it */
000012  f9bd4006          LDRSH    r4,[sp,#6]
000016  f9bd5004          LDRSH    r5,[sp,#4]
00001a  f9bd6002          LDRSH    r6,[sp,#2]
00001e  f9bd7000          LDRSH    r7,[sp,#0]
000022  4623              MOV      r3,r4
000024  462a              MOV      r2,r5
000026  4631              MOV      r1,r6
000028  4638              MOV      r0,r7
00002a  f7fffffe          BL       GUI_DrawRect
;;;64      /* Draw the bright sides */
;;;65       LCD_SetColor(0xffffff);
00002e  f06f407f          MVN      r0,#0xff000000
000032  f7fffffe          BL       LCD_SetColor
;;;66       GUI_DrawHLine(r.y0 + 1, r.x0 + 1, r.x1 - 2);    /* Draw top line */
000036  1eaa              SUBS     r2,r5,#2
000038  1c79              ADDS     r1,r7,#1
00003a  1c70              ADDS     r0,r6,#1
00003c  f7fffffe          BL       GUI_DrawHLine
;;;67       GUI_DrawVLine(r.x0 + 1, r.y0 + 1, r.y1 - 2);
000040  1ea2              SUBS     r2,r4,#2
000042  1c71              ADDS     r1,r6,#1
000044  1c78              ADDS     r0,r7,#1
000046  f7fffffe          BL       GUI_DrawVLine
;;;68       /* Draw the dark sides */
;;;69       LCD_SetColor(0x555555);
00004a  483e              LDR      r0,|L1.324|
00004c  f7fffffe          BL       LCD_SetColor
;;;70       GUI_DrawHLine(r.y1-1, r.x0 + 1, r.x1 - 1);
000050  1e6a              SUBS     r2,r5,#1
000052  1c79              ADDS     r1,r7,#1
000054  1e60              SUBS     r0,r4,#1
000056  f7fffffe          BL       GUI_DrawHLine
;;;71       GUI_DrawVLine(r.x1-1, r.y0 + 1, r.y1 - 2);
00005a  1ea2              SUBS     r2,r4,#2
00005c  1c71              ADDS     r1,r6,#1
00005e  b003              ADD      sp,sp,#0xc
000060  1e68              SUBS     r0,r5,#1
000062  e8bd40f0          POP      {r4-r7,lr}
000066  f7ffbffe          B.W      GUI_DrawVLine
;;;72     /*  GUI_RestoreContext(&Context); */
;;;73     }
;;;74     
                          ENDP

                  _WIDGET_EFFECT_3D_DrawDownRect PROC
;;;78     */
;;;79     static void _WIDGET_EFFECT_3D_DrawDownRect(const GUI_RECT* pRect) {
00006a  b5f0              PUSH     {r4-r7,lr}
00006c  b083              SUB      sp,sp,#0xc
;;;80       GUI_RECT r;
;;;81       r = *pRect;
00006e  6801              LDR      r1,[r0,#0]
000070  9100              STR      r1,[sp,#0]
000072  6840              LDR      r0,[r0,#4]
000074  9001              STR      r0,[sp,#4]
;;;82       LCD_SetColor(0x000000);  /* TBD: Use halftone */
000076  2000              MOVS     r0,#0
000078  f7fffffe          BL       LCD_SetColor
;;;83     /*  GUI_DrawRect(0, 0, r.x1, r.y1);*/
;;;84       /* Draw the upper left sides */
;;;85       LCD_SetColor(0x808080);
00007c  4832              LDR      r0,|L1.328|
00007e  f7fffffe          BL       LCD_SetColor
;;;86       GUI_DrawHLine(r.y0, r.x0, r.x1);
000082  f9bd6004          LDRSH    r6,[sp,#4]
000086  f9bd5000          LDRSH    r5,[sp,#0]
00008a  f9bd4002          LDRSH    r4,[sp,#2]
00008e  4632              MOV      r2,r6
000090  4629              MOV      r1,r5
000092  4620              MOV      r0,r4
000094  f7fffffe          BL       GUI_DrawHLine
;;;87       GUI_DrawVLine(r.x0, r.y0 + 1, r.y1);
000098  f9bd7006          LDRSH    r7,[sp,#6]
00009c  1c61              ADDS     r1,r4,#1
00009e  463a              MOV      r2,r7
0000a0  4628              MOV      r0,r5
0000a2  f7fffffe          BL       GUI_DrawVLine
;;;88       LCD_SetColor(0x0);
0000a6  2000              MOVS     r0,#0
0000a8  f7fffffe          BL       LCD_SetColor
;;;89       GUI_DrawHLine(r.y0 + 1, r.x0 + 1, r.x1 - 1);
0000ac  1e72              SUBS     r2,r6,#1
0000ae  1c69              ADDS     r1,r5,#1
0000b0  1c60              ADDS     r0,r4,#1
0000b2  f7fffffe          BL       GUI_DrawHLine
;;;90       GUI_DrawVLine(r.x0 + 1, r.y0 + 2, r.y1 - 1);
0000b6  1e7a              SUBS     r2,r7,#1
0000b8  1ca1              ADDS     r1,r4,#2
0000ba  1c68              ADDS     r0,r5,#1
0000bc  f7fffffe          BL       GUI_DrawVLine
;;;91       /* Draw the lower right sides */
;;;92       LCD_SetColor(0xffffff);
0000c0  f06f407f          MVN      r0,#0xff000000
0000c4  f7fffffe          BL       LCD_SetColor
;;;93       GUI_DrawHLine(r.y1, r.x0 + 1, r.x1);
0000c8  1c69              ADDS     r1,r5,#1
0000ca  4632              MOV      r2,r6
0000cc  4638              MOV      r0,r7
0000ce  f7fffffe          BL       GUI_DrawHLine
;;;94       GUI_DrawVLine(r.x1, r.y0 + 1, r.y1);
0000d2  1c61              ADDS     r1,r4,#1
0000d4  463a              MOV      r2,r7
0000d6  4630              MOV      r0,r6
0000d8  f7fffffe          BL       GUI_DrawVLine
;;;95       LCD_SetColor(0xc0c0c0);
0000dc  481b              LDR      r0,|L1.332|
0000de  f7fffffe          BL       LCD_SetColor
;;;96       GUI_DrawHLine(r.y1 - 1, r. x0 + 2, r.x1-1);
0000e2  1e72              SUBS     r2,r6,#1
0000e4  1ca9              ADDS     r1,r5,#2
0000e6  1e78              SUBS     r0,r7,#1
0000e8  f7fffffe          BL       GUI_DrawHLine
;;;97       GUI_DrawVLine(r.x1 - 1, r. y0 + 2, r.y1-1);
0000ec  1e7a              SUBS     r2,r7,#1
0000ee  1ca1              ADDS     r1,r4,#2
0000f0  b003              ADD      sp,sp,#0xc
0000f2  1e70              SUBS     r0,r6,#1
0000f4  e8bd40f0          POP      {r4-r7,lr}
0000f8  f7ffbffe          B.W      GUI_DrawVLine
;;;98     }
;;;99     
                          ENDP

                  _WIDGET_EFFECT_3D_DrawDown PROC
;;;103    */
;;;104    static void _WIDGET_EFFECT_3D_DrawDown(void) {
0000fc  b500              PUSH     {lr}
0000fe  b083              SUB      sp,sp,#0xc
;;;105      GUI_RECT r;
;;;106      WM_GetClientRect(&r);
000100  4668              MOV      r0,sp
000102  f7fffffe          BL       WM_GetClientRect
;;;107      _WIDGET_EFFECT_3D_DrawDownRect(&r);
000106  4668              MOV      r0,sp
000108  f7fffffe          BL       _WIDGET_EFFECT_3D_DrawDownRect
;;;108    }
00010c  b003              ADD      sp,sp,#0xc
00010e  bd00              POP      {pc}
;;;109    
                          ENDP

                  _WIDGET_EFFECT_3D_GetRect PROC
;;;113    */
;;;114    static void _WIDGET_EFFECT_3D_GetRect(GUI_RECT* pRect) {
000110  b510              PUSH     {r4,lr}
000112  4604              MOV      r4,r0
;;;115      WM_GetClientRect(pRect);
000114  4620              MOV      r0,r4
000116  f7fffffe          BL       WM_GetClientRect
;;;116      GUI__ReduceRect(pRect, pRect, 2);
00011a  4621              MOV      r1,r4
00011c  4620              MOV      r0,r4
00011e  e8bd4010          POP      {r4,lr}
000122  2202              MOVS     r2,#2
000124  f7ffbffe          B.W      GUI__ReduceRect
;;;117    }
;;;118    
                          ENDP

                  WIDGET_EFFECT_3D_DrawUp PROC
;;;128    */
;;;129    void WIDGET_EFFECT_3D_DrawUp(void) {
000128  b500              PUSH     {lr}
00012a  b083              SUB      sp,sp,#0xc
;;;130      GUI_RECT r;
;;;131      WM_GetClientRect(&r);
00012c  4668              MOV      r0,sp
00012e  f7fffffe          BL       WM_GetClientRect
;;;132      _WIDGET_EFFECT_3D_DrawUpRect(&r);
000132  4668              MOV      r0,sp
000134  f7fffffe          BL       _WIDGET_EFFECT_3D_DrawUpRect
;;;133    }
000138  b003              ADD      sp,sp,#0xc
00013a  bd00              POP      {pc}
;;;134    
                          ENDP

                  WIDGET_SetDefaultEffect_3D PROC
;;;138    */
;;;139    void WIDGET_SetDefaultEffect_3D(void) {
00013c  4804              LDR      r0,|L1.336|
;;;140      WIDGET_SetDefaultEffect(&WIDGET_Effect_3D);
00013e  f7ffbffe          B.W      WIDGET_SetDefaultEffect
;;;141    }
;;;142    
                          ENDP

000142  0000              DCW      0x0000
                  |L1.324|
                          DCD      0x00555555
                  |L1.328|
                          DCD      0x00808080
                  |L1.332|
                          DCD      0x00c0c0c0
                  |L1.336|
                          DCD      ||.constdata||

                          AREA ||.constdata||, DATA, READONLY, ALIGN=2

                  WIDGET_Effect_3D
                          DCD      WIDGET_EFFECT_3D_DrawUp
                          DCD      _WIDGET_EFFECT_3D_DrawDown
                          DCD      _WIDGET_EFFECT_3D_DrawUpRect
                          DCD      _WIDGET_EFFECT_3D_DrawDownRect
                          DCD      _WIDGET_EFFECT_3D_GetRect
                          DCD      0x00000002
