; generated by ARM C/C++ Compiler, 4.1 [Build 481]
; commandline ArmCC [--debug -c --asm --interleave -o.\rvmdk\widget_effect_simple.o --depend=.\rvmdk\widget_effect_simple.d --cpu=Cortex-M3 --apcs=interwork -O1 -Otime -I. -I..\BSP -I..\..\..\..\..\uCOS-II\Ports\arm-cortex-m3\Generic\RealView -I..\..\..\..\..\uCOS-II\Source -I..\..\..\..\..\CPU\ST\STM32\inc -I..\..\..\..\..\uC-CPU -I..\..\..\..\..\uC-CPU\Arm-Cortex-M3\RealView -I..\..\..\..\..\uC-LIB -I..\..\..\..\..\uC-Probe\Target\Plugins\uCOS-II -I..\..\..\..\..\uC-Probe\Target\Communication\Generic\Source -I..\..\..\..\..\uC-Probe\Target\Communication\Generic\RS-232\Ports\ST\STM32 -I..\..\..\..\..\uC-Probe\Target\Communication\Generic\RS-232\Source -I..\..\..\..\..\User\inc -I..\..\..\..\..\uCGUI\Config -I..\..\..\..\..\uCGUI\GUIDemo -I..\..\..\..\..\uCGUI\LCDDriver -I..\..\..\..\..\uCGUI\GUI\AntiAlias -I..\..\..\..\..\uCGUI\GUI\ConvertColor -I..\..\..\..\..\uCGUI\GUI\ConvertMono -I..\..\..\..\..\uCGUI\GUI\Core -I..\..\..\..\..\uCGUI\GUI\Font -I..\..\..\..\..\uCGUI\GUI\LCDDriver -I..\..\..\..\..\uCGUI\GUI\MemDev -I..\..\..\..\..\uCGUI\GUI\MultiLayer -I..\..\..\..\..\uCGUI\GUI\Widget -I..\..\..\..\..\uCGUI\GUI\WM -Id:\Keil-stm32\ARM\INC -Id:\Keil-stm32\ARM\INC\ST\STM32F10x -D__MICROLIB --omf_browse=.\rvmdk\widget_effect_simple.crf ..\..\..\..\..\uCGUI\GUI\Widget\WIDGET_Effect_Simple.c]
                          THUMB

                          AREA ||.text||, CODE, READONLY, ALIGN=2

                  _WIDGET_EFFECT_Simple_DrawUpRect PROC
;;;40     */
;;;41     static void _WIDGET_EFFECT_Simple_DrawUpRect(const GUI_RECT* pRect) {
000000  b510              PUSH     {r4,lr}
000002  b09a              SUB      sp,sp,#0x68
000004  4604              MOV      r4,r0
;;;42       GUI_CONTEXT Context;
;;;43       GUI_SaveContext(&Context);
000006  a801              ADD      r0,sp,#4
000008  f7fffffe          BL       GUI_SaveContext_W_M
;;;44       LCD_SetColor(GUI_BLACK);
00000c  2000              MOVS     r0,#0
00000e  f7fffffe          BL       LCD_SetColor
;;;45       GUI_DrawRect(pRect->x0, pRect->y0, pRect->x1, pRect->y1);          /* Draw rectangle around it */
000012  f9b43006          LDRSH    r3,[r4,#6]
000016  f9b42004          LDRSH    r2,[r4,#4]
00001a  f9b41002          LDRSH    r1,[r4,#2]
00001e  f9b40000          LDRSH    r0,[r4,#0]
000022  f7fffffe          BL       GUI_DrawRect
;;;46       GUI_RestoreContext(&Context);
000026  a801              ADD      r0,sp,#4
000028  f7fffffe          BL       GUI_RestoreContext
;;;47     }
00002c  b01a              ADD      sp,sp,#0x68
00002e  bd10              POP      {r4,pc}
;;;48     
                          ENDP

                  _WIDGET_EFFECT_Simple_DrawUp PROC
;;;52     */
;;;53     static void _WIDGET_EFFECT_Simple_DrawUp(void) {
000030  b500              PUSH     {lr}
000032  b083              SUB      sp,sp,#0xc
;;;54       GUI_RECT r;
;;;55       WM_GetClientRect(&r);
000034  4668              MOV      r0,sp
000036  f7fffffe          BL       WM_GetClientRect
;;;56       _WIDGET_EFFECT_Simple_DrawUpRect(&r);
00003a  4668              MOV      r0,sp
00003c  f7fffffe          BL       _WIDGET_EFFECT_Simple_DrawUpRect
;;;57     }
000040  b003              ADD      sp,sp,#0xc
000042  bd00              POP      {pc}
;;;58     
                          ENDP

                  _WIDGET_EFFECT_Simple_DrawDownRect PROC
;;;62     */
;;;63     static void _WIDGET_EFFECT_Simple_DrawDownRect(const GUI_RECT* pRect) {
000044  b510              PUSH     {r4,lr}
000046  b09a              SUB      sp,sp,#0x68
000048  4604              MOV      r4,r0
;;;64       GUI_CONTEXT Context;
;;;65       GUI_SaveContext(&Context);
00004a  a801              ADD      r0,sp,#4
00004c  f7fffffe          BL       GUI_SaveContext_W_M
;;;66       LCD_SetColor(GUI_BLACK);
000050  2000              MOVS     r0,#0
000052  f7fffffe          BL       LCD_SetColor
;;;67       GUI_DrawRect(pRect->x0, pRect->y0, pRect->x1, pRect->y1);          /* Draw rectangle around it */
000056  f9b43006          LDRSH    r3,[r4,#6]
00005a  f9b42004          LDRSH    r2,[r4,#4]
00005e  f9b41002          LDRSH    r1,[r4,#2]
000062  f9b40000          LDRSH    r0,[r4,#0]
000066  f7fffffe          BL       GUI_DrawRect
;;;68       GUI_RestoreContext(&Context);
00006a  a801              ADD      r0,sp,#4
00006c  f7fffffe          BL       GUI_RestoreContext
;;;69     }
000070  b01a              ADD      sp,sp,#0x68
000072  bd10              POP      {r4,pc}
;;;70     
                          ENDP

                  _WIDGET_EFFECT_Simple_DrawDown PROC
;;;74     */
;;;75     static void _WIDGET_EFFECT_Simple_DrawDown(void) {
000074  b500              PUSH     {lr}
000076  b083              SUB      sp,sp,#0xc
;;;76       GUI_RECT r;
;;;77       WM_GetClientRect(&r);
000078  4668              MOV      r0,sp
00007a  f7fffffe          BL       WM_GetClientRect
;;;78       _WIDGET_EFFECT_Simple_DrawDownRect(&r);
00007e  4668              MOV      r0,sp
000080  f7fffffe          BL       _WIDGET_EFFECT_Simple_DrawDownRect
;;;79     }
000084  b003              ADD      sp,sp,#0xc
000086  bd00              POP      {pc}
;;;80     
                          ENDP

                  _WIDGET_EFFECT_Simple_GetRect PROC
;;;84     */
;;;85     static void _WIDGET_EFFECT_Simple_GetRect(GUI_RECT* pRect) {
000088  b510              PUSH     {r4,lr}
00008a  4604              MOV      r4,r0
;;;86       WM_GetClientRect(pRect);
00008c  4620              MOV      r0,r4
00008e  f7fffffe          BL       WM_GetClientRect
;;;87       GUI__ReduceRect(pRect, pRect, 1);
000092  4621              MOV      r1,r4
000094  4620              MOV      r0,r4
000096  e8bd4010          POP      {r4,lr}
00009a  2201              MOVS     r2,#1
00009c  f7ffbffe          B.W      GUI__ReduceRect
;;;88     }
;;;89     
                          ENDP

                  WIDGET_SetDefaultEffect_Simple PROC
;;;99     */
;;;100    void WIDGET_SetDefaultEffect_Simple(void) {
0000a0  4801              LDR      r0,|L1.168|
;;;101      WIDGET_SetDefaultEffect(&WIDGET_Effect_Simple);
0000a2  f7ffbffe          B.W      WIDGET_SetDefaultEffect
;;;102    }
;;;103    
                          ENDP

0000a6  0000              DCW      0x0000
                  |L1.168|
                          DCD      ||.constdata||

                          AREA ||.constdata||, DATA, READONLY, ALIGN=2

                  WIDGET_Effect_Simple
                          DCD      _WIDGET_EFFECT_Simple_DrawUp
                          DCD      _WIDGET_EFFECT_Simple_DrawDown
                          DCD      _WIDGET_EFFECT_Simple_DrawUpRect
                          DCD      _WIDGET_EFFECT_Simple_DrawDownRect
                          DCD      _WIDGET_EFFECT_Simple_GetRect
                          DCD      0x00000001
