; generated by ARM C/C++ Compiler, 4.1 [Build 481]
; commandline ArmCC [--debug -c --asm --interleave -o.\rvmdk\wm_attachwindow.o --depend=.\rvmdk\wm_attachwindow.d --cpu=Cortex-M3 --apcs=interwork -O1 -Otime -I. -I..\BSP -I..\..\..\..\..\uCOS-II\Ports\arm-cortex-m3\Generic\RealView -I..\..\..\..\..\uCOS-II\Source -I..\..\..\..\..\CPU\ST\STM32\inc -I..\..\..\..\..\uC-CPU -I..\..\..\..\..\uC-CPU\Arm-Cortex-M3\RealView -I..\..\..\..\..\uC-LIB -I..\..\..\..\..\uC-Probe\Target\Plugins\uCOS-II -I..\..\..\..\..\uC-Probe\Target\Communication\Generic\Source -I..\..\..\..\..\uC-Probe\Target\Communication\Generic\RS-232\Ports\ST\STM32 -I..\..\..\..\..\uC-Probe\Target\Communication\Generic\RS-232\Source -I..\..\..\..\..\User\inc -I..\..\..\..\..\uCGUI\Config -I..\..\..\..\..\uCGUI\GUIDemo -I..\..\..\..\..\uCGUI\LCDDriver -I..\..\..\..\..\uCGUI\GUI\AntiAlias -I..\..\..\..\..\uCGUI\GUI\ConvertColor -I..\..\..\..\..\uCGUI\GUI\ConvertMono -I..\..\..\..\..\uCGUI\GUI\Core -I..\..\..\..\..\uCGUI\GUI\Font -I..\..\..\..\..\uCGUI\GUI\LCDDriver -I..\..\..\..\..\uCGUI\GUI\MemDev -I..\..\..\..\..\uCGUI\GUI\MultiLayer -I..\..\..\..\..\uCGUI\GUI\Widget -I..\..\..\..\..\uCGUI\GUI\WM -Id:\Keil-stm32\ARM\INC -Id:\Keil-stm32\ARM\INC\ST\STM32F10x -D__MICROLIB --omf_browse=.\rvmdk\wm_attachwindow.crf ..\..\..\..\..\uCGUI\GUI\WM\WM_AttachWindow.c]
                          THUMB

                          AREA ||.text||, CODE, READONLY, ALIGN=1

                  WM_DetachWindow PROC
;;;33     */
;;;34     void WM_DetachWindow(WM_HWIN hWin) {
000000  b570              PUSH     {r4-r6,lr}
000002  4605              MOV      r5,r0
;;;35       if (hWin) {
000004  2d00              CMP      r5,#0
000006  d01a              BEQ      |L1.62|
;;;36         WM_HWIN hParent;
;;;37         WM_Obj* pWin;
;;;38         WM_LOCK();
000008  f7fffffe          BL       GUI_Lock
;;;39         pWin = WM_H2P(hWin);
00000c  4628              MOV      r0,r5
00000e  f7fffffe          BL       GUI_ALLOC_h2p
;;;40         hParent = pWin->hParent;
000012  f9b04016          LDRSH    r4,[r0,#0x16]
;;;41         if (hParent) {
000016  b174              CBZ      r4,|L1.54|
;;;42           WM_Obj* pParent;
;;;43           WM__DetachWindow(hWin);
000018  4628              MOV      r0,r5
00001a  f7fffffe          BL       WM__DetachWindow
;;;44           pParent = WM_H2P(hParent);
00001e  4620              MOV      r0,r4
000020  f7fffffe          BL       GUI_ALLOC_h2p
;;;45           WM_MoveWindow(hWin, -pParent->Rect.x0,  -pParent->Rect.y0);   /* Convert screen coordinates -> parent coordinates */
000024  f9b01002          LDRSH    r1,[r0,#2]
000028  f9b00000          LDRSH    r0,[r0,#0]
00002c  424a              RSBS     r2,r1,#0
00002e  4241              RSBS     r1,r0,#0
000030  4628              MOV      r0,r5
000032  f7fffffe          BL       WM_MoveWindow
                  |L1.54|
;;;46           /* ToDo: Invalidate. If Parent window is located at (0,0). */
;;;47         }
;;;48         WM_UNLOCK();
000036  e8bd4070          POP      {r4-r6,lr}
00003a  f7ffbffe          B.W      GUI_Unlock
                  |L1.62|
;;;49       }
;;;50     }
00003e  bd70              POP      {r4-r6,pc}
;;;51     
                          ENDP

                  WM_AttachWindow PROC
;;;55     */
;;;56     void WM_AttachWindow(WM_HWIN hWin, WM_HWIN hParent) {
000040  e92d41f0          PUSH     {r4-r8,lr}
000044  4607              MOV      r7,r0
000046  460c              MOV      r4,r1
;;;57       WM_LOCK();
000048  f7fffffe          BL       GUI_Lock
;;;58       if (hParent && (hParent != hWin)) {
00004c  b1dc              CBZ      r4,|L1.134|
00004e  42bc              CMP      r4,r7
000050  d019              BEQ      |L1.134|
;;;59         WM_Obj* pWin    = WM_H2P(hWin);
000052  4638              MOV      r0,r7
000054  f7fffffe          BL       GUI_ALLOC_h2p
000058  4606              MOV      r6,r0
;;;60         WM_Obj* pParent = WM_H2P(hParent);
00005a  4620              MOV      r0,r4
00005c  f7fffffe          BL       GUI_ALLOC_h2p
000060  4605              MOV      r5,r0
;;;61         if (pWin->hParent != hParent) {
000062  f9b60016          LDRSH    r0,[r6,#0x16]
000066  42a0              CMP      r0,r4
000068  d00d              BEQ      |L1.134|
;;;62           WM_DetachWindow(hWin);
00006a  4638              MOV      r0,r7
00006c  f7fffffe          BL       WM_DetachWindow
;;;63           WM__InsertWindowIntoList(hWin, hParent);
000070  4621              MOV      r1,r4
000072  4638              MOV      r0,r7
000074  f7fffffe          BL       WM__InsertWindowIntoList
;;;64           WM_MoveWindow(hWin, pParent->Rect.x0,  pParent->Rect.y0);    /* Convert parent coordinates -> screen coordinates */
000078  f9b52002          LDRSH    r2,[r5,#2]
00007c  f9b51000          LDRSH    r1,[r5,#0]
000080  4638              MOV      r0,r7
000082  f7fffffe          BL       WM_MoveWindow
                  |L1.134|
;;;65         }
;;;66       }
;;;67       WM_UNLOCK();
000086  e8bd41f0          POP      {r4-r8,lr}
00008a  f7ffbffe          B.W      GUI_Unlock
;;;68     }
;;;69     
                          ENDP

                  WM_AttachWindowAt PROC
;;;73     */
;;;74     void WM_AttachWindowAt(WM_HWIN hWin, WM_HWIN hParent, int x, int y) {
00008e  e92d41f0          PUSH     {r4-r8,lr}
000092  4606              MOV      r6,r0
000094  460f              MOV      r7,r1
000096  4614              MOV      r4,r2
000098  461d              MOV      r5,r3
;;;75       WM_DetachWindow(hWin);
00009a  4630              MOV      r0,r6
00009c  f7fffffe          BL       WM_DetachWindow
;;;76       WM_MoveTo(hWin, x, y);
0000a0  462a              MOV      r2,r5
0000a2  4621              MOV      r1,r4
0000a4  4630              MOV      r0,r6
0000a6  f7fffffe          BL       WM_MoveTo
;;;77       WM_AttachWindow(hWin, hParent);
0000aa  4639              MOV      r1,r7
0000ac  4630              MOV      r0,r6
0000ae  e8bd41f0          POP      {r4-r8,lr}
0000b2  e7fe              B        WM_AttachWindow
;;;78     }
;;;79     
                          ENDP

