; generated by ARM C/C++ Compiler, 4.1 [Build 481]
; commandline ArmCC [--debug -c --asm --interleave -o.\rvmdk\wm_screen2win.o --depend=.\rvmdk\wm_screen2win.d --cpu=Cortex-M3 --apcs=interwork -O1 -Otime -I. -I..\BSP -I..\..\..\..\..\uCOS-II\Ports\arm-cortex-m3\Generic\RealView -I..\..\..\..\..\uCOS-II\Source -I..\..\..\..\..\CPU\ST\STM32\inc -I..\..\..\..\..\uC-CPU -I..\..\..\..\..\uC-CPU\Arm-Cortex-M3\RealView -I..\..\..\..\..\uC-LIB -I..\..\..\..\..\uC-Probe\Target\Plugins\uCOS-II -I..\..\..\..\..\uC-Probe\Target\Communication\Generic\Source -I..\..\..\..\..\uC-Probe\Target\Communication\Generic\RS-232\Ports\ST\STM32 -I..\..\..\..\..\uC-Probe\Target\Communication\Generic\RS-232\Source -I..\..\..\..\..\User\inc -I..\..\..\..\..\uCGUI\Config -I..\..\..\..\..\uCGUI\GUIDemo -I..\..\..\..\..\uCGUI\LCDDriver -I..\..\..\..\..\uCGUI\GUI\AntiAlias -I..\..\..\..\..\uCGUI\GUI\ConvertColor -I..\..\..\..\..\uCGUI\GUI\ConvertMono -I..\..\..\..\..\uCGUI\GUI\Core -I..\..\..\..\..\uCGUI\GUI\Font -I..\..\..\..\..\uCGUI\GUI\LCDDriver -I..\..\..\..\..\uCGUI\GUI\MemDev -I..\..\..\..\..\uCGUI\GUI\MultiLayer -I..\..\..\..\..\uCGUI\GUI\Widget -I..\..\..\..\..\uCGUI\GUI\WM -Id:\Keil-stm32\ARM\INC -Id:\Keil-stm32\ARM\INC\ST\STM32F10x -D__MICROLIB --omf_browse=.\rvmdk\wm_screen2win.crf ..\..\..\..\..\uCGUI\GUI\WM\WM_Screen2Win.c]
                          THUMB

                          AREA ||.text||, CODE, READONLY, ALIGN=2

                  WM__IsInWindow PROC
;;;70     */
;;;71     int WM__IsInWindow(WM_Obj * pWin, int x, int y) {
000000  8b83              LDRH     r3,[r0,#0x1c]
;;;72       if (   (pWin->Status & WM_SF_ISVIS)
000002  f0130f02          TST      r3,#2
000006  d011              BEQ      |L1.44|
;;;73           && (x >= pWin->Rect.x0)
000008  f9b03000          LDRSH    r3,[r0,#0]
00000c  428b              CMP      r3,r1
00000e  dc0d              BGT      |L1.44|
;;;74           && (x <= pWin->Rect.x1)
000010  f9b03004          LDRSH    r3,[r0,#4]
000014  428b              CMP      r3,r1
000016  db09              BLT      |L1.44|
;;;75           && (y >= pWin->Rect.y0)
000018  f9b01002          LDRSH    r1,[r0,#2]
00001c  4291              CMP      r1,r2
00001e  dc05              BGT      |L1.44|
;;;76           && (y <= pWin->Rect.y1))
000020  f9b00006          LDRSH    r0,[r0,#6]
000024  4290              CMP      r0,r2
000026  db01              BLT      |L1.44|
;;;77       {
;;;78         return 1;
000028  2001              MOVS     r0,#1
;;;79       }
;;;80       return 0;
;;;81     }
00002a  4770              BX       lr
                  |L1.44|
00002c  2000              MOVS     r0,#0                 ;80
00002e  4770              BX       lr
;;;82     
                          ENDP

                  _Screen2hWin PROC
;;;41     */
;;;42     static WM_HWIN _Screen2hWin(WM_HWIN hWin, WM_HWIN hStop, int x, int y) {
000030  e92d47f0          PUSH     {r4-r10,lr}
000034  4681              MOV      r9,r0
000036  460e              MOV      r6,r1
000038  4617              MOV      r7,r2
00003a  4698              MOV      r8,r3
;;;43       WM_Obj* pWin = WM_HANDLE2PTR(hWin);
00003c  4648              MOV      r0,r9
00003e  f7fffffe          BL       GUI_ALLOC_h2p
000042  4604              MOV      r4,r0
;;;44       WM_HWIN hChild;
;;;45       WM_HWIN hHit;
;;;46       /* First check if the  coordinates are in the given window. If not, return 0 */
;;;47       if (WM__IsInWindow(pWin, x, y) == 0) {
000044  4642              MOV      r2,r8
000046  4639              MOV      r1,r7
000048  4620              MOV      r0,r4
00004a  f7fffffe          BL       WM__IsInWindow
00004e  b110              CBZ      r0,|L1.86|
;;;48         return 0;
;;;49       }
;;;50       /* If the coordinates are in a child, search deeper ... */
;;;51       for (hChild = pWin->hFirstChild; hChild && (hChild != hStop); ) {
000050  f9b44018          LDRSH    r4,[r4,#0x18]
000054  e010              B        |L1.120|
                  |L1.86|
000056  2000              MOVS     r0,#0                 ;48
;;;52         WM_Obj* pChild = WM_HANDLE2PTR(hChild);
;;;53         if ((hHit = _Screen2hWin(hChild, hStop, x, y)) != 0) {
;;;54           hWin = hHit;        /* Found a window */
;;;55         }
;;;56         hChild = pChild->hNext;
;;;57       }
;;;58       return hWin;            /* No Child affected ... The parent is the right one */
;;;59     }
000058  e8bd87f0          POP      {r4-r10,pc}
                  |L1.92|
00005c  4620              MOV      r0,r4                 ;52
00005e  f7fffffe          BL       GUI_ALLOC_h2p
000062  4605              MOV      r5,r0                 ;52
000064  4643              MOV      r3,r8                 ;53
000066  463a              MOV      r2,r7                 ;53
000068  4631              MOV      r1,r6                 ;53
00006a  4620              MOV      r0,r4                 ;53
00006c  f7fffffe          BL       _Screen2hWin
000070  b100              CBZ      r0,|L1.116|
000072  4681              MOV      r9,r0                 ;54
                  |L1.116|
000074  f9b5401a          LDRSH    r4,[r5,#0x1a]         ;56
                  |L1.120|
000078  b10c              CBZ      r4,|L1.126|
00007a  42b4              CMP      r4,r6                 ;51
00007c  d1ee              BNE      |L1.92|
                  |L1.126|
00007e  4648              MOV      r0,r9                 ;58
000080  e8bd87f0          POP      {r4-r10,pc}
;;;60     
                          ENDP

                  WM_Screen2hWin PROC
;;;86     */
;;;87     WM_HWIN WM_Screen2hWin(int x, int y) {
000084  b570              PUSH     {r4-r6,lr}
000086  4604              MOV      r4,r0
000088  460d              MOV      r5,r1
;;;88       WM_HWIN r;
;;;89       WM_LOCK();
00008a  f7fffffe          BL       GUI_Lock
;;;90       r = _Screen2hWin(WM__FirstWin, 0, x, y);
00008e  4810              LDR      r0,|L1.208|
000090  462b              MOV      r3,r5
000092  4622              MOV      r2,r4
000094  2100              MOVS     r1,#0
000096  f9b00000          LDRSH    r0,[r0,#0]  ; WM__FirstWin
00009a  f7fffffe          BL       _Screen2hWin
00009e  4604              MOV      r4,r0
;;;91       WM_UNLOCK();
0000a0  f7fffffe          BL       GUI_Unlock
;;;92       return r;
0000a4  4620              MOV      r0,r4
;;;93     }
0000a6  bd70              POP      {r4-r6,pc}
;;;94     
                          ENDP

                  WM_Screen2hWinEx PROC
;;;98     */
;;;99     WM_HWIN WM_Screen2hWinEx(WM_HWIN hStop, int x, int y) {
0000a8  b570              PUSH     {r4-r6,lr}
0000aa  4604              MOV      r4,r0
0000ac  460d              MOV      r5,r1
0000ae  4616              MOV      r6,r2
;;;100      WM_HWIN r;
;;;101      WM_LOCK();
0000b0  f7fffffe          BL       GUI_Lock
;;;102      r = _Screen2hWin(WM__FirstWin, hStop, x, y);
0000b4  4806              LDR      r0,|L1.208|
0000b6  4633              MOV      r3,r6
0000b8  462a              MOV      r2,r5
0000ba  4621              MOV      r1,r4
0000bc  f9b00000          LDRSH    r0,[r0,#0]  ; WM__FirstWin
0000c0  f7fffffe          BL       _Screen2hWin
0000c4  4604              MOV      r4,r0
;;;103      WM_UNLOCK();
0000c6  f7fffffe          BL       GUI_Unlock
;;;104      return r;
0000ca  4620              MOV      r0,r4
;;;105    }
0000cc  bd70              POP      {r4-r6,pc}
;;;106    
                          ENDP

0000ce  0000              DCW      0x0000
                  |L1.208|
                          DCD      WM__FirstWin
